(dp1
S'output'
p2
S"<type 'exceptions.SyntaxError'> invalid syntax (index.html, line 46)"
p3
sS'layer'
p4
S'/home/diegocunha/web2py/applications/Helpy/views/dashboard/index.html'
p5
sS'code'
p6
S'response.write(\'<!DOCTYPE html>\\n<html>\\n<head>\\n  <meta charset="utf-8">\\n  <meta http-equiv="X-UA-Compatible" content="IE=edge">\\n  <title>\', escape=False)\nresponse.write(response.title or request.application)\nresponse.write(\' | \', escape=False)\nresponse.write(\'[Controller]\')\nresponse.write(\'</title>\\n  <!-- Tell the browser to be responsive to screen width -->\\n  <meta content="width=device-width, initial-scale=1, maximum-scale=1, user-scalable=no" name="viewport">\\n  <!-- Bootstrap 3.3.6 -->\\n  <link rel="stylesheet" href="\', escape=False)\nresponse.write(URL(\'static\',\'AdminLTE-2.3.3/bootstrap/css/bootstrap.min.css\'))\nresponse.write(\'">\\n  <!-- Font Awesome -->\\n  <link rel="stylesheet" href="https://cdnjs.cloudflare.com/ajax/libs/font-awesome/4.5.0/css/font-awesome.min.css">\\n  <!-- Ionicons -->\\n  <link rel="stylesheet" href="https://cdnjs.cloudflare.com/ajax/libs/ionicons/2.0.1/css/ionicons.min.css">\\n  <!-- Theme style -->\\n  <link rel="stylesheet" href="\', escape=False)\nresponse.write(URL(\'static\',\'AdminLTE-2.3.3/dist/css/AdminLTE.min.css\'))\nresponse.write(\'">\\n  <!-- AdminLTE Skins. Choose a skin from the css/skins\\n       folder instead of downloading all of them to reduce the load. -->\\n  <link rel="stylesheet" href="\', escape=False)\nresponse.write(URL(\'static\',\'AdminLTE-2.3.3/dist/css/skins/_all-skins.min.css\'))\nresponse.write(\'">\\n  <!-- iCheck -->\\n  <link rel="stylesheet" href="\', escape=False)\nresponse.write(URL(\'static\',\'AdminLTE-2.3.3/plugins/iCheck/flat/blue.css\'))\nresponse.write(\'">\\n  <!-- Morris chart -->\\n  <link rel="stylesheet" href="\', escape=False)\nresponse.write(URL(\'static\',\'AdminLTE-2.3.3/plugins/morris/morris.css\'))\nresponse.write(\'">\\n  <!-- jvectormap -->\\n  <link rel="stylesheet" href="\', escape=False)\nresponse.write(URL(\'static\',\'AdminLTE-2.3.3/plugins/jvectormap/jquery-jvectormap-1.2.2.css\'))\nresponse.write(\'">\\n  <!-- Date Picker -->\\n  <link rel="stylesheet" href="\', escape=False)\nresponse.write(URL(\'static\',\'AdminLTE-2.3.3/plugins/datepicker/datepicker3.css\'))\nresponse.write(\'">\\n  <!-- Daterange picker -->\\n  <link rel="stylesheet" href="\', escape=False)\nresponse.write(URL(\'static\',\'AdminLTE-2.3.3/plugins/daterangepicker/daterangepicker-bs3.css\'))\nresponse.write(\'">\\n  <!-- bootstrap wysihtml5 - text editor -->\\n  <link rel="stylesheet" href="\', escape=False)\nresponse.write(URL(\'static\',\'AdminLTE-2.3.3/plugins/bootstrap-wysihtml5/bootstrap3-wysihtml5.min.css\'))\nresponse.write(\'">\\n\\n  <!-- HTML5 Shim and Respond.js IE8 support of HTML5 elements and media queries -->\\n  <!-- WARNING: Respond.js doesn\\\'t work if you view the page via file:// -->\\n  <!--[if lt IE 9]>\\n  <script src="https://oss.maxcdn.com/html5shiv/3.7.3/html5shiv.min.js"></script>\\n  <script src="https://oss.maxcdn.com/respond/1.4.2/respond.min.js"></script>\\n  <![endif]-->\\n</head>\\n<body class="hold-transition skin-blue sidebar-mini">\\n<div class="wrapper">\\n\\n  <header class="main-header">\\n    <!-- Logo -->\\n    <a href="\', escape=False)\nresponse.write(URL(\'dashboard\', \'index\'))\nresponse.write(\'" class="logo">\\n      <!-- mini logo for sidebar mini 50x50 pixels -->\\n      <span class="logo-mini"><b>\', escape=False)\nresponse.write(response.title or request.application)\nresponse.write(\'</b></span>\\n      <!-- logo for regular state and mobile devices -->\\n      <span class="logo-lg"><b>\', escape=False)\nresponse.write(response.title or request.application)\nresponse.write(\'</b>Desk</span>\\n    </a>\\n    <!-- Header Navbar: style can be found in header.less -->\\n    <nav class="navbar navbar-static-top">\\n      <!-- Sidebar toggle button-->\\n      <a href="#" class="sidebar-toggle" data-toggle="offcanvas" role="button">\\n        <span class="sr-only">Toggle navigation</span>\\n      </a>\\n\\n      <div class="navbar-custom-menu">\\n        <ul class="nav navbar-nav">\\n          <!-- Messages: style can be found in dropdown.less-->\\n          <li class="dropdown messages-menu">\\n            <a href="#" class="dropdown-toggle" data-toggle="dropdown">\\n              <i class="fa fa-envelope-o"></i>\\n              <span class="label label-success">4</span>\\n            </a>\\n            <ul class="dropdown-menu">\\n              <li class="header">You have 4 messages</li>\\n              <li>\\n                <!-- inner menu: contains the actual data -->\\n                <ul class="menu">\\n                  <li><!-- start message -->\\n                    <a href="#">\\n                      <div class="pull-left">\\n                        <img src="\', escape=False)\nresponse.write(URL(\'static\', \'AdminLTE-2.3.3/dist/img/user2-160x160.jpg\'))\nresponse.write(\'" class="img-circle" alt="User Image">\\n                      </div>\\n                      <h4>\\n                        Support Team\\n                        <small><i class="fa fa-clock-o"></i> 5 mins</small>\\n                      </h4>\\n                      <p>Why not buy a new awesome theme?</p>\\n                    </a>\\n                  </li>\\n                  <!-- end message -->\\n                  <li>\\n                    <a href="#">\\n                      <div class="pull-left">\\n                        <img src="\', escape=False)\nresponse.write(URL(\'static\', \'AdminLTE-2.3.3/dist/img/user3-128x128.jpg\'))\nresponse.write(\'" class="img-circle" alt="User Image">\\n                      </div>\\n                      <h4>\\n                        AdminLTE Design Team\\n                        <small><i class="fa fa-clock-o"></i> 2 hours</small>\\n                      </h4>\\n                      <p>Why not buy a new awesome theme?</p>\\n                    </a>\\n                  </li>\\n                  <li>\\n                    <a href="#">\\n                      <div class="pull-left">\\n                        <img src="\', escape=False)\nresponse.write(URL(\'static\', \'AdminLTE-2.3.3/dist/img/user4-128x128.jpg\'))\nresponse.write(\'" class="img-circle" alt="User Image">\\n                      </div>\\n                      <h4>\\n                        Developers\\n                        <small><i class="fa fa-clock-o"></i> Today</small>\\n                      </h4>\\n                      <p>Why not buy a new awesome theme?</p>\\n                    </a>\\n                  </li>\\n                  <li>\\n                    <a href="#">\\n                      <div class="pull-left">\\n                        <img src="\', escape=False)\nresponse.write(URL(\'static\', \'AdminLTE-2.3.3/dist/img/user3-128x128.jpg\'))\nresponse.write(\'" class="img-circle" alt="User Image">\\n                      </div>\\n                      <h4>\\n                        Sales Department\\n                        <small><i class="fa fa-clock-o"></i> Yesterday</small>\\n                      </h4>\\n                      <p>Why not buy a new awesome theme?</p>\\n                    </a>\\n                  </li>\\n                  <li>\\n                    <a href="#">\\n                      <div class="pull-left">\\n                        <img src="\', escape=False)\nresponse.write(URL(\'static\', \'AdminLTE-2.3.3/dist/img/user4-128x128.jpg\'))\nresponse.write(\'" class="img-circle" alt="User Image">\\n                      </div>\\n                      <h4>\\n                        Reviewers\\n                        <small><i class="fa fa-clock-o"></i> 2 days</small>\\n                      </h4>\\n                      <p>Why not buy a new awesome theme?</p>\\n                    </a>\\n                  </li>\\n                </ul>\\n              </li>\\n              <li class="footer"><a href="#">See All Messages</a></li>\\n            </ul>\\n          </li>\\n          <!-- Notifications: style can be found in dropdown.less -->\\n          <li class="dropdown notifications-menu">\\n            <a href="#" class="dropdown-toggle" data-toggle="dropdown">\\n              <i class="fa fa-bell-o"></i>\\n              <span class="label label-warning">10</span>\\n            </a>\\n            <ul class="dropdown-menu">\\n              <li class="header">You have 10 notifications</li>\\n              <li>\\n                <!-- inner menu: contains the actual data -->\\n                <ul class="menu">\\n                  <li>\\n                    <a href="#">\\n                      <i class="fa fa-users text-aqua"></i> 5 new members joined today\\n                    </a>\\n                  </li>\\n                  <li>\\n                    <a href="#">\\n                      <i class="fa fa-warning text-yellow"></i> Very long description here that may not fit into the\\n                      page and may cause design problems\\n                    </a>\\n                  </li>\\n                  <li>\\n                    <a href="#">\\n                      <i class="fa fa-users text-red"></i> 5 new members joined\\n                    </a>\\n                  </li>\\n                  <li>\\n                    <a href="#">\\n                      <i class="fa fa-shopping-cart text-green"></i> 25 sales made\\n                    </a>\\n                  </li>\\n                  <li>\\n                    <a href="#">\\n                      <i class="fa fa-user text-red"></i> You changed your username\\n                    </a>\\n                  </li>\\n                </ul>\\n              </li>\\n              <li class="footer"><a href="#">View all</a></li>\\n            </ul>\\n          </li>\\n          <!-- Tasks: style can be found in dropdown.less -->\\n          <li class="dropdown tasks-menu">\\n            <a href="#" class="dropdown-toggle" data-toggle="dropdown">\\n              <i class="fa fa-flag-o"></i>\\n              <span class="label label-danger">9</span>\\n            </a>\\n            <ul class="dropdown-menu">\\n              <li class="header">You have 9 tasks</li>\\n              <li>\\n                <!-- inner menu: contains the actual data -->\\n                <ul class="menu">\\n                  <li><!-- Task item -->\\n                    <a href="#">\\n                      <h3>\\n                        Design some buttons\\n                        <small class="pull-right">20%</small>\\n                      </h3>\\n                      <div class="progress xs">\\n                        <div class="progress-bar progress-bar-aqua" style="width: 20%" role="progressbar" aria-valuenow="20" aria-valuemin="0" aria-valuemax="100">\\n                          <span class="sr-only">20% Complete</span>\\n                        </div>\\n                      </div>\\n                    </a>\\n                  </li>\\n                  <!-- end task item -->\\n                  <li><!-- Task item -->\\n                    <a href="#">\\n                      <h3>\\n                        Create a nice theme\\n                        <small class="pull-right">40%</small>\\n                      </h3>\\n                      <div class="progress xs">\\n                        <div class="progress-bar progress-bar-green" style="width: 40%" role="progressbar" aria-valuenow="20" aria-valuemin="0" aria-valuemax="100">\\n                          <span class="sr-only">40% Complete</span>\\n                        </div>\\n                      </div>\\n                    </a>\\n                  </li>\\n                  <!-- end task item -->\\n                  <li><!-- Task item -->\\n                    <a href="#">\\n                      <h3>\\n                        Some task I need to do\\n                        <small class="pull-right">60%</small>\\n                      </h3>\\n                      <div class="progress xs">\\n                        <div class="progress-bar progress-bar-red" style="width: 60%" role="progressbar" aria-valuenow="20" aria-valuemin="0" aria-valuemax="100">\\n                          <span class="sr-only">60% Complete</span>\\n                        </div>\\n                      </div>\\n                    </a>\\n                  </li>\\n                  <!-- end task item -->\\n                  <li><!-- Task item -->\\n                    <a href="#">\\n                      <h3>\\n                        Make beautiful transitions\\n                        <small class="pull-right">80%</small>\\n                      </h3>\\n                      <div class="progress xs">\\n                        <div class="progress-bar progress-bar-yellow" style="width: 80%" role="progressbar" aria-valuenow="20" aria-valuemin="0" aria-valuemax="100">\\n                          <span class="sr-only">80% Complete</span>\\n                        </div>\\n                      </div>\\n                    </a>\\n                  </li>\\n                  <!-- end task item -->\\n                </ul>\\n              </li>\\n              <li class="footer">\\n                <a href="#">View all tasks</a>\\n              </li>\\n            </ul>\\n          </li>\\n          <!-- User Account: style can be found in dropdown.less -->\\n          <li class="dropdown user user-menu">\\n            <a href="#" class="dropdown-toggle" data-toggle="dropdown">\\n              <img src="\', escape=False)\nresponse.write(URL(\'static\', \'AdminLTE-2.3.3/dist/img/user2-160x160.jpg\'))\nresponse.write(\'" class="user-image" alt="User Image">\\n              <span class="hidden-xs">Alexander Pierce</span>\\n            </a>\\n            <ul class="dropdown-menu">\\n              <!-- User image -->\\n              <li class="user-header">\\n                <img src="\', escape=False)\nresponse.write(URL(\'static\', \'AdminLTE-2.3.3/dist/img/user2-160x160.jpg\'))\nresponse.write(\'" class="img-circle" alt="User Image">\\n\\n                <p>\\n                  Alexander Pierce - Web Developer\\n                  <small>Member since Nov. 2012</small>\\n                </p>\\n              </li>\\n              <!-- Menu Body -->\\n              <li class="user-body">\\n                <div class="row">\\n                  <div class="col-xs-4 text-center">\\n                    <a href="#">Followers</a>\\n                  </div>\\n                  <div class="col-xs-4 text-center">\\n                    <a href="#">Sales</a>\\n                  </div>\\n                  <div class="col-xs-4 text-center">\\n                    <a href="#">Friends</a>\\n                  </div>\\n                </div>\\n                <!-- /.row -->\\n              </li>\\n              <!-- Menu Footer-->\\n              <li class="user-footer">\\n                <div class="pull-left">\\n                  <a href="#" class="btn btn-default btn-flat">Profile</a>\\n                </div>\\n                <div class="pull-right">\\n                  <a href="#" class="btn btn-default btn-flat">Sign out</a>\\n                </div>\\n              </li>\\n            </ul>\\n          </li>\\n          <!-- Control Sidebar Toggle Button -->\\n          <li>\\n            <a href="#" data-toggle="control-sidebar"><i class="fa fa-gears"></i></a>\\n          </li>\\n        </ul>\\n      </div>\\n    </nav>\\n  </header>\\n  <!-- Left side column. contains the logo and sidebar -->\\n  <aside class="main-sidebar">\\n    <!-- sidebar: style can be found in sidebar.less -->\\n    <section class="sidebar">\\n      <!-- Sidebar user panel -->\\n      <div class="user-panel">\\n        <div class="pull-left image">\\n          <img src="\', escape=False)\nresponse.write(URL(\'static\', \'AdminLTE-2.3.3/dist/img/user2-160x160.jpg\'))\nresponse.write(\'" class="img-circle" alt="User Image">\\n        </div>\\n        <div class="pull-left info">\\n          <p>Alexander Pierce</p>\\n          <a href="#"><i class="fa fa-circle text-success"></i> Online</a>\\n        </div>\\n      </div>\\n      <!-- search form -->\\n      <form action="#" method="get" class="sidebar-form">\\n        <div class="input-group">\\n          <input type="text" name="q" class="form-control" placeholder="Search...">\\n              <span class="input-group-btn">\\n                <button type="submit" name="search" id="search-btn" class="btn btn-flat"><i class="fa fa-search"></i>\\n                </button>\\n              </span>\\n        </div>\\n      </form>\\n      <!-- /.search form -->\\n      <!-- sidebar menu: : style can be found in sidebar.less -->\\n      <ul class="sidebar-menu">\\n        <li class="header">MAIN NAVIGATION</li>\\n        <li class="active treeview">\\n          <a href="#">\\n            <i class="fa fa-dashboard"></i> <span>Dashboard</span> <i class="fa fa-angle-left pull-right"></i>\\n          </a>\\n          <ul class="treeview-menu">\\n            <li class="active"><a href="index.html"><i class="fa fa-circle-o"></i> Dashboard v1</a></li>\\n            <li><a href="index2.html"><i class="fa fa-circle-o"></i> Dashboard v2</a></li>\\n          </ul>\\n        </li>\\n        <li class="treeview">\\n          <a href="#">\\n            <i class="fa fa-files-o"></i>\\n            <span>Layout Options</span>\\n            <span class="label label-primary pull-right">4</span>\\n          </a>\\n          <ul class="treeview-menu">\\n            <li><a href="pages/layout/top-nav.html"><i class="fa fa-circle-o"></i> Top Navigation</a></li>\\n            <li><a href="pages/layout/boxed.html"><i class="fa fa-circle-o"></i> Boxed</a></li>\\n            <li><a href="pages/layout/fixed.html"><i class="fa fa-circle-o"></i> Fixed</a></li>\\n            <li><a href="pages/layout/collapsed-sidebar.html"><i class="fa fa-circle-o"></i> Collapsed Sidebar</a></li>\\n          </ul>\\n        </li>\\n        <li>\\n          <a href="pages/widgets.html">\\n            <i class="fa fa-th"></i> <span>Widgets</span>\\n            <small class="label pull-right bg-green">new</small>\\n          </a>\\n        </li>\\n        <li class="treeview">\\n          <a href="#">\\n            <i class="fa fa-pie-chart"></i>\\n            <span>Charts</span>\\n            <i class="fa fa-angle-left pull-right"></i>\\n          </a>\\n          <ul class="treeview-menu">\\n            <li><a href="pages/charts/chartjs.html"><i class="fa fa-circle-o"></i> ChartJS</a></li>\\n            <li><a href="pages/charts/morris.html"><i class="fa fa-circle-o"></i> Morris</a></li>\\n            <li><a href="pages/charts/flot.html"><i class="fa fa-circle-o"></i> Flot</a></li>\\n            <li><a href="pages/charts/inline.html"><i class="fa fa-circle-o"></i> Inline charts</a></li>\\n          </ul>\\n        </li>\\n        <li class="treeview">\\n          <a href="#">\\n            <i class="fa fa-laptop"></i>\\n            <span>UI Elements</span>\\n            <i class="fa fa-angle-left pull-right"></i>\\n          </a>\\n          <ul class="treeview-menu">\\n            <li><a href="pages/UI/general.html"><i class="fa fa-circle-o"></i> General</a></li>\\n            <li><a href="pages/UI/icons.html"><i class="fa fa-circle-o"></i> Icons</a></li>\\n            <li><a href="pages/UI/buttons.html"><i class="fa fa-circle-o"></i> Buttons</a></li>\\n            <li><a href="pages/UI/sliders.html"><i class="fa fa-circle-o"></i> Sliders</a></li>\\n            <li><a href="pages/UI/timeline.html"><i class="fa fa-circle-o"></i> Timeline</a></li>\\n            <li><a href="pages/UI/modals.html"><i class="fa fa-circle-o"></i> Modals</a></li>\\n          </ul>\\n        </li>\\n        <li class="treeview">\\n          <a href="#">\\n            <i class="fa fa-edit"></i> <span>Forms</span>\\n            <i class="fa fa-angle-left pull-right"></i>\\n          </a>\\n          <ul class="treeview-menu">\\n            <li><a href="pages/forms/general.html"><i class="fa fa-circle-o"></i> General Elements</a></li>\\n            <li><a href="pages/forms/advanced.html"><i class="fa fa-circle-o"></i> Advanced Elements</a></li>\\n            <li><a href="pages/forms/editors.html"><i class="fa fa-circle-o"></i> Editors</a></li>\\n          </ul>\\n        </li>\\n        <li class="treeview">\\n          <a href="#">\\n            <i class="fa fa-table"></i> <span>Tables</span>\\n            <i class="fa fa-angle-left pull-right"></i>\\n          </a>\\n          <ul class="treeview-menu">\\n            <li><a href="pages/tables/simple.html"><i class="fa fa-circle-o"></i> Simple tables</a></li>\\n            <li><a href="pages/tables/data.html"><i class="fa fa-circle-o"></i> Data tables</a></li>\\n          </ul>\\n        </li>\\n        <li>\\n          <a href="pages/calendar.html">\\n            <i class="fa fa-calendar"></i> <span>Calendar</span>\\n            <small class="label pull-right bg-red">3</small>\\n          </a>\\n        </li>\\n        <li>\\n          <a href="pages/mailbox/mailbox.html">\\n            <i class="fa fa-envelope"></i> <span>Mailbox</span>\\n            <small class="label pull-right bg-yellow">12</small>\\n          </a>\\n        </li>\\n        <li class="treeview">\\n          <a href="#">\\n            <i class="fa fa-folder"></i> <span>Examples</span>\\n            <i class="fa fa-angle-left pull-right"></i>\\n          </a>\\n          <ul class="treeview-menu">\\n            <li><a href="pages/examples/invoice.html"><i class="fa fa-circle-o"></i> Invoice</a></li>\\n            <li><a href="pages/examples/profile.html"><i class="fa fa-circle-o"></i> Profile</a></li>\\n            <li><a href="pages/examples/login.html"><i class="fa fa-circle-o"></i> Login</a></li>\\n            <li><a href="pages/examples/register.html"><i class="fa fa-circle-o"></i> Register</a></li>\\n            <li><a href="pages/examples/lockscreen.html"><i class="fa fa-circle-o"></i> Lockscreen</a></li>\\n            <li><a href="pages/examples/404.html"><i class="fa fa-circle-o"></i> 404 Error</a></li>\\n            <li><a href="pages/examples/500.html"><i class="fa fa-circle-o"></i> 500 Error</a></li>\\n            <li><a href="pages/examples/blank.html"><i class="fa fa-circle-o"></i> Blank Page</a></li>\\n            <li><a href="pages/examples/pace.html"><i class="fa fa-circle-o"></i> Pace Page</a></li>\\n          </ul>\\n        </li>\\n        <li class="treeview">\\n          <a href="#">\\n            <i class="fa fa-share"></i> <span>Multilevel</span>\\n            <i class="fa fa-angle-left pull-right"></i>\\n          </a>\\n          <ul class="treeview-menu">\\n            <li><a href="#"><i class="fa fa-circle-o"></i> Level One</a></li>\\n            <li>\\n              <a href="#"><i class="fa fa-circle-o"></i> Level One <i class="fa fa-angle-left pull-right"></i></a>\\n              <ul class="treeview-menu">\\n                <li><a href="#"><i class="fa fa-circle-o"></i> Level Two</a></li>\\n                <li>\\n                  <a href="#"><i class="fa fa-circle-o"></i> Level Two <i class="fa fa-angle-left pull-right"></i></a>\\n                  <ul class="treeview-menu">\\n                    <li><a href="#"><i class="fa fa-circle-o"></i> Level Three</a></li>\\n                    <li><a href="#"><i class="fa fa-circle-o"></i> Level Three</a></li>\\n                  </ul>\\n                </li>\\n              </ul>\\n            </li>\\n            <li><a href="#"><i class="fa fa-circle-o"></i> Level One</a></li>\\n          </ul>\\n        </li>\\n        <li><a href="documentation/index.html"><i class="fa fa-book"></i> <span>Documentation</span></a></li>\\n        <li class="header">LABELS</li>\\n        <li><a href="#"><i class="fa fa-circle-o text-red"></i> <span>Important</span></a></li>\\n        <li><a href="#"><i class="fa fa-circle-o text-yellow"></i> <span>Warning</span></a></li>\\n        <li><a href="#"><i class="fa fa-circle-o text-aqua"></i> <span>Information</span></a></li>\\n      </ul>\\n    </section>\\n    <!-- /.sidebar -->\\n  </aside>\\n\\n  <!-- Content Wrapper. Contains page content -->\\n  <div class="content-wrapper">\\n    <!-- Content Header (Page header) -->\\n    <section class="content-header">\\n      <h1>\\n        Dashboard\\n        <small>Control panel</small>\\n      </h1>\\n      <ol class="breadcrumb">\\n        <li><a href="#"><i class="fa fa-dashboard"></i> Home</a></li>\\n        <li class="active">Dashboard</li>\\n      </ol>\\n    </section>\\n\\n    <!-- Main content -->\\n    <section class="content">\\n      <!-- Small boxes (Stat box) -->\\n      <div class="row">\\n        <div class="col-lg-3 col-xs-6">\\n          <!-- small box -->\\n          <div class="small-box bg-aqua">\\n            <div class="inner">\\n              <h3>150</h3>\\n\\n              <p>New Orders</p>\\n            </div>\\n            <div class="icon">\\n              <i class="ion ion-bag"></i>\\n            </div>\\n            <a href="#" class="small-box-footer">More info <i class="fa fa-arrow-circle-right"></i></a>\\n          </div>\\n        </div>\\n        <!-- ./col -->\\n        <div class="col-lg-3 col-xs-6">\\n          <!-- small box -->\\n          <div class="small-box bg-green">\\n            <div class="inner">\\n              <h3>53<sup style="font-size: 20px">%</sup></h3>\\n\\n              <p>Bounce Rate</p>\\n            </div>\\n            <div class="icon">\\n              <i class="ion ion-stats-bars"></i>\\n            </div>\\n            <a href="#" class="small-box-footer">More info <i class="fa fa-arrow-circle-right"></i></a>\\n          </div>\\n        </div>\\n        <!-- ./col -->\\n        <div class="col-lg-3 col-xs-6">\\n          <!-- small box -->\\n          <div class="small-box bg-yellow">\\n            <div class="inner">\\n              <h3>44</h3>\\n\\n              <p>User Registrations</p>\\n            </div>\\n            <div class="icon">\\n              <i class="ion ion-person-add"></i>\\n            </div>\\n            <a href="#" class="small-box-footer">More info <i class="fa fa-arrow-circle-right"></i></a>\\n          </div>\\n        </div>\\n        <!-- ./col -->\\n        <div class="col-lg-3 col-xs-6">\\n          <!-- small box -->\\n          <div class="small-box bg-red">\\n            <div class="inner">\\n              <h3>65</h3>\\n\\n              <p>Unique Visitors</p>\\n            </div>\\n            <div class="icon">\\n              <i class="ion ion-pie-graph"></i>\\n            </div>\\n            <a href="#" class="small-box-footer">More info <i class="fa fa-arrow-circle-right"></i></a>\\n          </div>\\n        </div>\\n        <!-- ./col -->\\n      </div>\\n      <!-- /.row -->\\n      <!-- Main row -->\\n      <div class="row">\\n        <!-- Left col -->\\n        <section class="col-lg-7 connectedSortable">\\n          <!-- Custom tabs (Charts with tabs)-->\\n          <div class="nav-tabs-custom">\\n            <!-- Tabs within a box -->\\n            <ul class="nav nav-tabs pull-right">\\n              <li class="active"><a href="#revenue-chart" data-toggle="tab">Area</a></li>\\n              <li><a href="#sales-chart" data-toggle="tab">Donut</a></li>\\n              <li class="pull-left header"><i class="fa fa-inbox"></i> Sales</li>\\n            </ul>\\n            <div class="tab-content no-padding">\\n              <!-- Morris chart - Sales -->\\n              <div class="chart tab-pane active" id="revenue-chart" style="position: relative; height: 300px;"></div>\\n              <div class="chart tab-pane" id="sales-chart" style="position: relative; height: 300px;"></div>\\n            </div>\\n          </div>\\n          <!-- /.nav-tabs-custom -->\\n\\n          <!-- Chat box -->\\n          <div class="box box-success">\\n            <div class="box-header">\\n              <i class="fa fa-comments-o"></i>\\n\\n              <h3 class="box-title">Chat</h3>\\n\\n              <div class="box-tools pull-right" data-toggle="tooltip" title="Status">\\n                <div class="btn-group" data-toggle="btn-toggle">\\n                  <button type="button" class="btn btn-default btn-sm active"><i class="fa fa-square text-green"></i>\\n                  </button>\\n                  <button type="button" class="btn btn-default btn-sm"><i class="fa fa-square text-red"></i></button>\\n                </div>\\n              </div>\\n            </div>\\n            <div class="box-body chat" id="chat-box">\\n              <!-- chat item -->\\n              <div class="item">\\n                <img src="\', escape=False)\nresponse.write(URL(\'static\', \'AdminLTE-2.3.3/dist/img/user4-128x128.jpg\')))\nresponse.write(\'" alt="user image" class="online">\\n\\n                <p class="message">\\n                  <a href="#" class="name">\\n                    <small class="text-muted pull-right"><i class="fa fa-clock-o"></i> 2:15</small>\\n                    Mike Doe\\n                  </a>\\n                  I would like to meet you to discuss the latest news about\\n                  the arrival of the new theme. They say it is going to be one the\\n                  best themes on the market\\n                </p>\\n                <div class="attachment">\\n                  <h4>Attachments:</h4>\\n\\n                  <p class="filename">\\n                    Theme-thumbnail-image.jpg\\n                  </p>\\n\\n                  <div class="pull-right">\\n                    <button type="button" class="btn btn-primary btn-sm btn-flat">Open</button>\\n                  </div>\\n                </div>\\n                <!-- /.attachment -->\\n              </div>\\n              <!-- /.item -->\\n              <!-- chat item -->\\n              <div class="item">\\n                <img src="dist/img/user3-128x128.jpg" alt="user image" class="offline">\\n\\n                <p class="message">\\n                  <a href="#" class="name">\\n                    <small class="text-muted pull-right"><i class="fa fa-clock-o"></i> 5:15</small>\\n                    Alexander Pierce\\n                  </a>\\n                  I would like to meet you to discuss the latest news about\\n                  the arrival of the new theme. They say it is going to be one the\\n                  best themes on the market\\n                </p>\\n              </div>\\n              <!-- /.item -->\\n              <!-- chat item -->\\n              <div class="item">\\n                <img src="dist/img/user2-160x160.jpg" alt="user image" class="offline">\\n\\n                <p class="message">\\n                  <a href="#" class="name">\\n                    <small class="text-muted pull-right"><i class="fa fa-clock-o"></i> 5:30</small>\\n                    Susan Doe\\n                  </a>\\n                  I would like to meet you to discuss the latest news about\\n                  the arrival of the new theme. They say it is going to be one the\\n                  best themes on the market\\n                </p>\\n              </div>\\n              <!-- /.item -->\\n            </div>\\n            <!-- /.chat -->\\n            <div class="box-footer">\\n              <div class="input-group">\\n                <input class="form-control" placeholder="Type message...">\\n\\n                <div class="input-group-btn">\\n                  <button type="button" class="btn btn-success"><i class="fa fa-plus"></i></button>\\n                </div>\\n              </div>\\n            </div>\\n          </div>\\n          <!-- /.box (chat box) -->\\n\\n          <!-- TO DO List -->\\n          <div class="box box-primary">\\n            <div class="box-header">\\n              <i class="ion ion-clipboard"></i>\\n\\n              <h3 class="box-title">To Do List</h3>\\n\\n              <div class="box-tools pull-right">\\n                <ul class="pagination pagination-sm inline">\\n                  <li><a href="#">&laquo;</a></li>\\n                  <li><a href="#">1</a></li>\\n                  <li><a href="#">2</a></li>\\n                  <li><a href="#">3</a></li>\\n                  <li><a href="#">&raquo;</a></li>\\n                </ul>\\n              </div>\\n            </div>\\n            <!-- /.box-header -->\\n            <div class="box-body">\\n              <ul class="todo-list">\\n                <li>\\n                  <!-- drag handle -->\\n                      <span class="handle">\\n                        <i class="fa fa-ellipsis-v"></i>\\n                        <i class="fa fa-ellipsis-v"></i>\\n                      </span>\\n                  <!-- checkbox -->\\n                  <input type="checkbox" value="">\\n                  <!-- todo text -->\\n                  <span class="text">Design a nice theme</span>\\n                  <!-- Emphasis label -->\\n                  <small class="label label-danger"><i class="fa fa-clock-o"></i> 2 mins</small>\\n                  <!-- General tools such as edit or delete-->\\n                  <div class="tools">\\n                    <i class="fa fa-edit"></i>\\n                    <i class="fa fa-trash-o"></i>\\n                  </div>\\n                </li>\\n                <li>\\n                      <span class="handle">\\n                        <i class="fa fa-ellipsis-v"></i>\\n                        <i class="fa fa-ellipsis-v"></i>\\n                      </span>\\n                  <input type="checkbox" value="">\\n                  <span class="text">Make the theme responsive</span>\\n                  <small class="label label-info"><i class="fa fa-clock-o"></i> 4 hours</small>\\n                  <div class="tools">\\n                    <i class="fa fa-edit"></i>\\n                    <i class="fa fa-trash-o"></i>\\n                  </div>\\n                </li>\\n                <li>\\n                      <span class="handle">\\n                        <i class="fa fa-ellipsis-v"></i>\\n                        <i class="fa fa-ellipsis-v"></i>\\n                      </span>\\n                  <input type="checkbox" value="">\\n                  <span class="text">Let theme shine like a star</span>\\n                  <small class="label label-warning"><i class="fa fa-clock-o"></i> 1 day</small>\\n                  <div class="tools">\\n                    <i class="fa fa-edit"></i>\\n                    <i class="fa fa-trash-o"></i>\\n                  </div>\\n                </li>\\n                <li>\\n                      <span class="handle">\\n                        <i class="fa fa-ellipsis-v"></i>\\n                        <i class="fa fa-ellipsis-v"></i>\\n                      </span>\\n                  <input type="checkbox" value="">\\n                  <span class="text">Let theme shine like a star</span>\\n                  <small class="label label-success"><i class="fa fa-clock-o"></i> 3 days</small>\\n                  <div class="tools">\\n                    <i class="fa fa-edit"></i>\\n                    <i class="fa fa-trash-o"></i>\\n                  </div>\\n                </li>\\n                <li>\\n                      <span class="handle">\\n                        <i class="fa fa-ellipsis-v"></i>\\n                        <i class="fa fa-ellipsis-v"></i>\\n                      </span>\\n                  <input type="checkbox" value="">\\n                  <span class="text">Check your messages and notifications</span>\\n                  <small class="label label-primary"><i class="fa fa-clock-o"></i> 1 week</small>\\n                  <div class="tools">\\n                    <i class="fa fa-edit"></i>\\n                    <i class="fa fa-trash-o"></i>\\n                  </div>\\n                </li>\\n                <li>\\n                      <span class="handle">\\n                        <i class="fa fa-ellipsis-v"></i>\\n                        <i class="fa fa-ellipsis-v"></i>\\n                      </span>\\n                  <input type="checkbox" value="">\\n                  <span class="text">Let theme shine like a star</span>\\n                  <small class="label label-default"><i class="fa fa-clock-o"></i> 1 month</small>\\n                  <div class="tools">\\n                    <i class="fa fa-edit"></i>\\n                    <i class="fa fa-trash-o"></i>\\n                  </div>\\n                </li>\\n              </ul>\\n            </div>\\n            <!-- /.box-body -->\\n            <div class="box-footer clearfix no-border">\\n              <button type="button" class="btn btn-default pull-right"><i class="fa fa-plus"></i> Add item</button>\\n            </div>\\n          </div>\\n          <!-- /.box -->\\n\\n          <!-- quick email widget -->\\n          <div class="box box-info">\\n            <div class="box-header">\\n              <i class="fa fa-envelope"></i>\\n\\n              <h3 class="box-title">Quick Email</h3>\\n              <!-- tools box -->\\n              <div class="pull-right box-tools">\\n                <button type="button" class="btn btn-info btn-sm" data-widget="remove" data-toggle="tooltip" title="Remove">\\n                  <i class="fa fa-times"></i></button>\\n              </div>\\n              <!-- /. tools -->\\n            </div>\\n            <div class="box-body">\\n              <form action="#" method="post">\\n                <div class="form-group">\\n                  <input type="email" class="form-control" name="emailto" placeholder="Email to:">\\n                </div>\\n                <div class="form-group">\\n                  <input type="text" class="form-control" name="subject" placeholder="Subject">\\n                </div>\\n                <div>\\n                  <textarea class="textarea" placeholder="Message" style="width: 100%; height: 125px; font-size: 14px; line-height: 18px; border: 1px solid #dddddd; padding: 10px;"></textarea>\\n                </div>\\n              </form>\\n            </div>\\n            <div class="box-footer clearfix">\\n              <button type="button" class="pull-right btn btn-default" id="sendEmail">Send\\n                <i class="fa fa-arrow-circle-right"></i></button>\\n            </div>\\n          </div>\\n\\n        </section>\\n        <!-- /.Left col -->\\n        <!-- right col (We are only adding the ID to make the widgets sortable)-->\\n        <section class="col-lg-5 connectedSortable">\\n\\n          <!-- Map box -->\\n          <div class="box box-solid bg-light-blue-gradient">\\n            <div class="box-header">\\n              <!-- tools box -->\\n              <div class="pull-right box-tools">\\n                <button type="button" class="btn btn-primary btn-sm daterange pull-right" data-toggle="tooltip" title="Date range">\\n                  <i class="fa fa-calendar"></i></button>\\n                <button type="button" class="btn btn-primary btn-sm pull-right" data-widget="collapse" data-toggle="tooltip" title="Collapse" style="margin-right: 5px;">\\n                  <i class="fa fa-minus"></i></button>\\n              </div>\\n              <!-- /. tools -->\\n\\n              <i class="fa fa-map-marker"></i>\\n\\n              <h3 class="box-title">\\n                Visitors\\n              </h3>\\n            </div>\\n            <div class="box-body">\\n              <div id="world-map" style="height: 250px; width: 100%;"></div>\\n            </div>\\n            <!-- /.box-body-->\\n            <div class="box-footer no-border">\\n              <div class="row">\\n                <div class="col-xs-4 text-center" style="border-right: 1px solid #f4f4f4">\\n                  <div id="sparkline-1"></div>\\n                  <div class="knob-label">Visitors</div>\\n                </div>\\n                <!-- ./col -->\\n                <div class="col-xs-4 text-center" style="border-right: 1px solid #f4f4f4">\\n                  <div id="sparkline-2"></div>\\n                  <div class="knob-label">Online</div>\\n                </div>\\n                <!-- ./col -->\\n                <div class="col-xs-4 text-center">\\n                  <div id="sparkline-3"></div>\\n                  <div class="knob-label">Exists</div>\\n                </div>\\n                <!-- ./col -->\\n              </div>\\n              <!-- /.row -->\\n            </div>\\n          </div>\\n          <!-- /.box -->\\n\\n          <!-- solid sales graph -->\\n          <div class="box box-solid bg-teal-gradient">\\n            <div class="box-header">\\n              <i class="fa fa-th"></i>\\n\\n              <h3 class="box-title">Sales Graph</h3>\\n\\n              <div class="box-tools pull-right">\\n                <button type="button" class="btn bg-teal btn-sm" data-widget="collapse"><i class="fa fa-minus"></i>\\n                </button>\\n                <button type="button" class="btn bg-teal btn-sm" data-widget="remove"><i class="fa fa-times"></i>\\n                </button>\\n              </div>\\n            </div>\\n            <div class="box-body border-radius-none">\\n              <div class="chart" id="line-chart" style="height: 250px;"></div>\\n            </div>\\n            <!-- /.box-body -->\\n            <div class="box-footer no-border">\\n              <div class="row">\\n                <div class="col-xs-4 text-center" style="border-right: 1px solid #f4f4f4">\\n                  <input type="text" class="knob" data-readonly="true" value="20" data-width="60" data-height="60" data-fgColor="#39CCCC">\\n\\n                  <div class="knob-label">Mail-Orders</div>\\n                </div>\\n                <!-- ./col -->\\n                <div class="col-xs-4 text-center" style="border-right: 1px solid #f4f4f4">\\n                  <input type="text" class="knob" data-readonly="true" value="50" data-width="60" data-height="60" data-fgColor="#39CCCC">\\n\\n                  <div class="knob-label">Online</div>\\n                </div>\\n                <!-- ./col -->\\n                <div class="col-xs-4 text-center">\\n                  <input type="text" class="knob" data-readonly="true" value="30" data-width="60" data-height="60" data-fgColor="#39CCCC">\\n\\n                  <div class="knob-label">In-Store</div>\\n                </div>\\n                <!-- ./col -->\\n              </div>\\n              <!-- /.row -->\\n            </div>\\n            <!-- /.box-footer -->\\n          </div>\\n          <!-- /.box -->\\n\\n          <!-- Calendar -->\\n          <div class="box box-solid bg-green-gradient">\\n            <div class="box-header">\\n              <i class="fa fa-calendar"></i>\\n\\n              <h3 class="box-title">Calendar</h3>\\n              <!-- tools box -->\\n              <div class="pull-right box-tools">\\n                <!-- button with a dropdown -->\\n                <div class="btn-group">\\n                  <button type="button" class="btn btn-success btn-sm dropdown-toggle" data-toggle="dropdown">\\n                    <i class="fa fa-bars"></i></button>\\n                  <ul class="dropdown-menu pull-right" role="menu">\\n                    <li><a href="#">Add new event</a></li>\\n                    <li><a href="#">Clear events</a></li>\\n                    <li class="divider"></li>\\n                    <li><a href="#">View calendar</a></li>\\n                  </ul>\\n                </div>\\n                <button type="button" class="btn btn-success btn-sm" data-widget="collapse"><i class="fa fa-minus"></i>\\n                </button>\\n                <button type="button" class="btn btn-success btn-sm" data-widget="remove"><i class="fa fa-times"></i>\\n                </button>\\n              </div>\\n              <!-- /. tools -->\\n            </div>\\n            <!-- /.box-header -->\\n            <div class="box-body no-padding">\\n              <!--The calendar -->\\n              <div id="calendar" style="width: 100%"></div>\\n            </div>\\n            <!-- /.box-body -->\\n            <div class="box-footer text-black">\\n              <div class="row">\\n                <div class="col-sm-6">\\n                  <!-- Progress bars -->\\n                  <div class="clearfix">\\n                    <span class="pull-left">Task #1</span>\\n                    <small class="pull-right">90%</small>\\n                  </div>\\n                  <div class="progress xs">\\n                    <div class="progress-bar progress-bar-green" style="width: 90%;"></div>\\n                  </div>\\n\\n                  <div class="clearfix">\\n                    <span class="pull-left">Task #2</span>\\n                    <small class="pull-right">70%</small>\\n                  </div>\\n                  <div class="progress xs">\\n                    <div class="progress-bar progress-bar-green" style="width: 70%;"></div>\\n                  </div>\\n                </div>\\n                <!-- /.col -->\\n                <div class="col-sm-6">\\n                  <div class="clearfix">\\n                    <span class="pull-left">Task #3</span>\\n                    <small class="pull-right">60%</small>\\n                  </div>\\n                  <div class="progress xs">\\n                    <div class="progress-bar progress-bar-green" style="width: 60%;"></div>\\n                  </div>\\n\\n                  <div class="clearfix">\\n                    <span class="pull-left">Task #4</span>\\n                    <small class="pull-right">40%</small>\\n                  </div>\\n                  <div class="progress xs">\\n                    <div class="progress-bar progress-bar-green" style="width: 40%;"></div>\\n                  </div>\\n                </div>\\n                <!-- /.col -->\\n              </div>\\n              <!-- /.row -->\\n            </div>\\n          </div>\\n          <!-- /.box -->\\n\\n        </section>\\n        <!-- right col -->\\n      </div>\\n      <!-- /.row (main row) -->\\n\\n    </section>\\n    <!-- /.content -->\\n  </div>\\n  <!-- /.content-wrapper -->\\n  <footer class="main-footer">\\n    <div class="pull-right hidden-xs">\\n      <b>Version</b> 2.3.3\\n    </div>\\n    <strong>Copyright &copy; 2014-2015 <a href="http://almsaeedstudio.com">Almsaeed Studio</a>.</strong> All rights\\n    reserved.\\n  </footer>\\n\\n  <!-- Control Sidebar -->\\n  <aside class="control-sidebar control-sidebar-dark">\\n    <!-- Create the tabs -->\\n    <ul class="nav nav-tabs nav-justified control-sidebar-tabs">\\n      <li><a href="#control-sidebar-home-tab" data-toggle="tab"><i class="fa fa-home"></i></a></li>\\n      <li><a href="#control-sidebar-settings-tab" data-toggle="tab"><i class="fa fa-gears"></i></a></li>\\n    </ul>\\n    <!-- Tab panes -->\\n    <div class="tab-content">\\n      <!-- Home tab content -->\\n      <div class="tab-pane" id="control-sidebar-home-tab">\\n        <h3 class="control-sidebar-heading">Recent Activity</h3>\\n        <ul class="control-sidebar-menu">\\n          <li>\\n            <a href="javascript:void(0)">\\n              <i class="menu-icon fa fa-birthday-cake bg-red"></i>\\n\\n              <div class="menu-info">\\n                <h4 class="control-sidebar-subheading">Langdon\\\'s Birthday</h4>\\n\\n                <p>Will be 23 on April 24th</p>\\n              </div>\\n            </a>\\n          </li>\\n          <li>\\n            <a href="javascript:void(0)">\\n              <i class="menu-icon fa fa-user bg-yellow"></i>\\n\\n              <div class="menu-info">\\n                <h4 class="control-sidebar-subheading">Frodo Updated His Profile</h4>\\n\\n                <p>New phone +1(800)555-1234</p>\\n              </div>\\n            </a>\\n          </li>\\n          <li>\\n            <a href="javascript:void(0)">\\n              <i class="menu-icon fa fa-envelope-o bg-light-blue"></i>\\n\\n              <div class="menu-info">\\n                <h4 class="control-sidebar-subheading">Nora Joined Mailing List</h4>\\n\\n                <p>nora@example.com</p>\\n              </div>\\n            </a>\\n          </li>\\n          <li>\\n            <a href="javascript:void(0)">\\n              <i class="menu-icon fa fa-file-code-o bg-green"></i>\\n\\n              <div class="menu-info">\\n                <h4 class="control-sidebar-subheading">Cron Job 254 Executed</h4>\\n\\n                <p>Execution time 5 seconds</p>\\n              </div>\\n            </a>\\n          </li>\\n        </ul>\\n        <!-- /.control-sidebar-menu -->\\n\\n        <h3 class="control-sidebar-heading">Tasks Progress</h3>\\n        <ul class="control-sidebar-menu">\\n          <li>\\n            <a href="javascript:void(0)">\\n              <h4 class="control-sidebar-subheading">\\n                Custom Template Design\\n                <span class="label label-danger pull-right">70%</span>\\n              </h4>\\n\\n              <div class="progress progress-xxs">\\n                <div class="progress-bar progress-bar-danger" style="width: 70%"></div>\\n              </div>\\n            </a>\\n          </li>\\n          <li>\\n            <a href="javascript:void(0)">\\n              <h4 class="control-sidebar-subheading">\\n                Update Resume\\n                <span class="label label-success pull-right">95%</span>\\n              </h4>\\n\\n              <div class="progress progress-xxs">\\n                <div class="progress-bar progress-bar-success" style="width: 95%"></div>\\n              </div>\\n            </a>\\n          </li>\\n          <li>\\n            <a href="javascript:void(0)">\\n              <h4 class="control-sidebar-subheading">\\n                Laravel Integration\\n                <span class="label label-warning pull-right">50%</span>\\n              </h4>\\n\\n              <div class="progress progress-xxs">\\n                <div class="progress-bar progress-bar-warning" style="width: 50%"></div>\\n              </div>\\n            </a>\\n          </li>\\n          <li>\\n            <a href="javascript:void(0)">\\n              <h4 class="control-sidebar-subheading">\\n                Back End Framework\\n                <span class="label label-primary pull-right">68%</span>\\n              </h4>\\n\\n              <div class="progress progress-xxs">\\n                <div class="progress-bar progress-bar-primary" style="width: 68%"></div>\\n              </div>\\n            </a>\\n          </li>\\n        </ul>\\n        <!-- /.control-sidebar-menu -->\\n\\n      </div>\\n      <!-- /.tab-pane -->\\n      <!-- Stats tab content -->\\n      <div class="tab-pane" id="control-sidebar-stats-tab">Stats Tab Content</div>\\n      <!-- /.tab-pane -->\\n      <!-- Settings tab content -->\\n      <div class="tab-pane" id="control-sidebar-settings-tab">\\n        <form method="post">\\n          <h3 class="control-sidebar-heading">General Settings</h3>\\n\\n          <div class="form-group">\\n            <label class="control-sidebar-subheading">\\n              Report panel usage\\n              <input type="checkbox" class="pull-right" checked>\\n            </label>\\n\\n            <p>\\n              Some information about this general settings option\\n            </p>\\n          </div>\\n          <!-- /.form-group -->\\n\\n          <div class="form-group">\\n            <label class="control-sidebar-subheading">\\n              Allow mail redirect\\n              <input type="checkbox" class="pull-right" checked>\\n            </label>\\n\\n            <p>\\n              Other sets of options are available\\n            </p>\\n          </div>\\n          <!-- /.form-group -->\\n\\n          <div class="form-group">\\n            <label class="control-sidebar-subheading">\\n              Expose author name in posts\\n              <input type="checkbox" class="pull-right" checked>\\n            </label>\\n\\n            <p>\\n              Allow the user to show his name in blog posts\\n            </p>\\n          </div>\\n          <!-- /.form-group -->\\n\\n          <h3 class="control-sidebar-heading">Chat Settings</h3>\\n\\n          <div class="form-group">\\n            <label class="control-sidebar-subheading">\\n              Show me as online\\n              <input type="checkbox" class="pull-right" checked>\\n            </label>\\n          </div>\\n          <!-- /.form-group -->\\n\\n          <div class="form-group">\\n            <label class="control-sidebar-subheading">\\n              Turn off notifications\\n              <input type="checkbox" class="pull-right">\\n            </label>\\n          </div>\\n          <!-- /.form-group -->\\n\\n          <div class="form-group">\\n            <label class="control-sidebar-subheading">\\n              Delete chat history\\n              <a href="javascript:void(0)" class="text-red pull-right"><i class="fa fa-trash-o"></i></a>\\n            </label>\\n          </div>\\n          <!-- /.form-group -->\\n        </form>\\n      </div>\\n      <!-- /.tab-pane -->\\n    </div>\\n  </aside>\\n  <!-- /.control-sidebar -->\\n  <!-- Add the sidebar\\\'s background. This div must be placed\\n       immediately after the control sidebar -->\\n  <div class="control-sidebar-bg"></div>\\n</div>\\n<!-- ./wrapper -->\\n\\n<!-- jQuery 2.2.0 -->\\n<script src="\', escape=False)\nresponse.write(URL(\'static\',\'AdminLTE-2.3.3/plugins/jQuery/jQuery-2.2.0.min.js\'))\nresponse.write(\'"></script>\\n<!-- jQuery UI 1.11.4 -->\\n<script src="https://code.jquery.com/ui/1.11.4/jquery-ui.min.js"></script>\\n<!-- Resolve conflict in jQuery UI tooltip with Bootstrap tooltip -->\\n<script>\\n  $.widget.bridge(\\\'uibutton\\\', $.ui.button);\\n</script>\\n<!-- Bootstrap 3.3.6 -->\\n<script src="\', escape=False)\nresponse.write(URL(\'static\',\'AdminLTE-2.3.3/bootstrap/js/bootstrap.min.js\'))\nresponse.write(\'"></script>\\n<!-- Morris.js charts -->\\n<script src="https://cdnjs.cloudflare.com/ajax/libs/raphael/2.1.0/raphael-min.js"></script>\\n<script src="\', escape=False)\nresponse.write(URL(\'static\',\'AdminLTE-2.3.3/plugins/morris/morris.min.js\'))\nresponse.write(\'"></script>\\n<!-- Sparkline -->\\n<script src="\', escape=False)\nresponse.write(URL(\'static\',\'AdminLTE-2.3.3/plugins/sparkline/jquery.sparkline.min.js\'))\nresponse.write(\'"></script>\\n<!-- jvectormap -->\\n<script src="\', escape=False)\nresponse.write(URL(\'static\',\'AdminLTE-2.3.3/plugins/jvectormap/jquery-jvectormap-1.2.2.min.js\'))\nresponse.write(\'"></script>\\n<script src="\', escape=False)\nresponse.write(URL(\'static\',\'AdminLTE-2.3.3/plugins/jvectormap/jquery-jvectormap-world-mill-en.js\'))\nresponse.write(\'"></script>\\n<!-- jQuery Knob Chart -->\\n<script src="\', escape=False)\nresponse.write(URL(\'static\',\'AdminLTE-2.3.3/plugins/knob/jquery.knob.js\'))\nresponse.write(\'"></script>\\n<!-- daterangepicker -->\\n<script src="https://cdnjs.cloudflare.com/ajax/libs/moment.js/2.11.2/moment.min.js"></script>\\n<script src="\', escape=False)\nresponse.write(URL(\'static\',\'AdminLTE-2.3.3/plugins/daterangepicker/daterangepicker.js\'))\nresponse.write(\'"></script>\\n<!-- datepicker -->\\n<script src="\', escape=False)\nresponse.write(URL(\'static\',\'AdminLTE-2.3.3/plugins/datepicker/bootstrap-datepicker.js\'))\nresponse.write(\'"></script>\\n<!-- Bootstrap WYSIHTML5 -->\\n<script src="\', escape=False)\nresponse.write(URL(\'static\',\'AdminLTE-2.3.3/plugins/bootstrap-wysihtml5/bootstrap3-wysihtml5.all.min.js\'))\nresponse.write(\'"></script>\\n<!-- Slimscroll -->\\n<script src="\', escape=False)\nresponse.write(URL(\'static\',\'AdminLTE-2.3.3/plugins/slimScroll/jquery.slimscroll.min.js\'))\nresponse.write(\'"></script>\\n<!-- FastClick -->\\n<script src="\', escape=False)\nresponse.write(URL(\'static\',\'AdminLTE-2.3.3/plugins/fastclick/fastclick.js\'))\nresponse.write(\'"></script>\\n<!-- AdminLTE App -->\\n<script src="\', escape=False)\nresponse.write(URL(\'static\',\'AdminLTE-2.3.3/dist/js/app.min.js\'))\nresponse.write(\'"></script>\\n<!-- AdminLTE dashboard demo (This is only for demo purposes) -->\\n<script src="\', escape=False)\nresponse.write(URL(\'static\',\'AdminLTE-2.3.3/dist/js/pages/dashboard.js\'))\nresponse.write(\' "></script>\\n<!-- AdminLTE for demo purposes -->\\n<script src="\', escape=False)\nresponse.write(URL(\'static\',\'AdminLTE-2.3.3/dist/js/demo.js\'))\nresponse.write(\'"></script>\\n</body>\\n</html>\\n\', escape=False)'
p7
sS'snapshot'
p8
(dp9
S'exception'
p10
(dp11
S'__getslice__'
p12
S"<method-wrapper '__getslice__' of exceptions.SyntaxError object>"
p13
sS'text'
p14
S'"response.write(URL(\'static\', \'AdminLTE-2.3.3/dist/img/user4-128x128.jpg\')))\\n"'
p15
sS'__str__'
p16
S"<method-wrapper '__str__' of exceptions.SyntaxError object>"
p17
sS'__reduce__'
p18
S'<built-in method __reduce__ of exceptions.SyntaxError object>'
p19
sS'__dict__'
p20
S'{}'
p21
sS'__sizeof__'
p22
S'<built-in method __sizeof__ of exceptions.SyntaxError object>'
p23
sS'__init__'
p24
S"<method-wrapper '__init__' of exceptions.SyntaxError object>"
p25
sS'__setattr__'
p26
S"<method-wrapper '__setattr__' of exceptions.SyntaxError object>"
p27
sS'__reduce_ex__'
p28
S'<built-in method __reduce_ex__ of exceptions.SyntaxError object>'
p29
sS'__new__'
p30
S'<built-in method __new__ of type object>'
p31
sS'__format__'
p32
S'<built-in method __format__ of exceptions.SyntaxError object>'
p33
sS'__class__'
p34
S"<type 'exceptions.SyntaxError'>"
p35
sS'filename'
p36
S"'/home/diegocunha/web2py/applications/Helpy/views/dashboard/index.html'"
p37
sS'lineno'
p38
S'46'
p39
sS'msg'
p40
S"'invalid syntax'"
p41
sS'__doc__'
p42
S"'Invalid syntax.'"
p43
sS'__getitem__'
p44
S"<method-wrapper '__getitem__' of exceptions.SyntaxError object>"
p45
sS'__setstate__'
p46
S'<built-in method __setstate__ of exceptions.SyntaxError object>'
p47
sS'__getattribute__'
p48
S"<method-wrapper '__getattribute__' of exceptions.SyntaxError object>"
p49
sS'print_file_and_line'
p50
S'None'
p51
sS'args'
p52
S'(\'invalid syntax\', (\'/home/diegocunha/web2py/applications/Helpy/views/dashboard/index.html\', 46, 75, "response.write(URL(\'static\', \'AdminLTE-2.3.3/dist/img/user4-128x128.jpg\')))\\n"))'
p53
sS'__subclasshook__'
p54
S'<built-in method __subclasshook__ of type object>'
p55
sS'offset'
p56
S'75'
p57
sS'__unicode__'
p58
S'<built-in method __unicode__ of exceptions.SyntaxError object>'
p59
sS'__delattr__'
p60
S"<method-wrapper '__delattr__' of exceptions.SyntaxError object>"
p61
sS'__repr__'
p62
S"<method-wrapper '__repr__' of exceptions.SyntaxError object>"
p63
sS'__hash__'
p64
S"<method-wrapper '__hash__' of exceptions.SyntaxError object>"
p65
ssS'evalue'
p66
S'invalid syntax (index.html, line 46)'
p67
sS'request'
p68
cgluon.html
XML_unpickle
p69
(S's]W\x00\x00<div><table><tr><td style="font-weight:bold;vertical-align:top;">ajax</td><td style="vertical-align:top;">:</td><td><div>False</div></td></tr><tr><td style="font-weight:bold;vertical-align:top;">application</td><td style="vertical-align:top;">:</td><td><div>Helpy</div></td></tr><tr><td style="font-weight:bold;vertical-align:top;">args</td><td style="vertical-align:top;">:</td><td><div><table></table></div></td></tr><tr><td style="font-weight:bold;vertical-align:top;">cid</td><td style="vertical-align:top;">:</td><td><div>None</div></td></tr><tr><td style="font-weight:bold;vertical-align:top;">client</td><td style="vertical-align:top;">:</td><td><div>177.52.101.21</div></td></tr><tr><td style="font-weight:bold;vertical-align:top;">controller</td><td style="vertical-align:top;">:</td><td><div>dashboard</div></td></tr><tr><td style="font-weight:bold;vertical-align:top;">cookies</td><td style="vertical-align:top;">:</td><td><div><table><tr><td style="font-weight:bold;vertical-align:top;">session_id_admin</td><td style="vertical-align:top;">:</td><td><div>177.52.101.21-2f8bf020-2905-47a6-a38c-359bd4336714<table><tr><td style="font-weight:bold;vertical-align:top;">comment</td><td style="vertical-align:top;">:</td><td><div></div></td></tr><tr><td style="font-weight:bold;vertical-align:top;">domain</td><td style="vertical-align:top;">:</td><td><div></div></td></tr><tr><td style="font-weight:bold;vertical-align:top;">expires</td><td style="vertical-align:top;">:</td><td><div></div></td></tr><tr><td style="font-weight:bold;vertical-align:top;">httponly</td><td style="vertical-align:top;">:</td><td><div></div></td></tr><tr><td style="font-weight:bold;vertical-align:top;">max-age</td><td style="vertical-align:top;">:</td><td><div></div></td></tr><tr><td style="font-weight:bold;vertical-align:top;">path</td><td style="vertical-align:top;">:</td><td><div></div></td></tr><tr><td style="font-weight:bold;vertical-align:top;">secure</td><td style="vertical-align:top;">:</td><td><div></div></td></tr><tr><td style="font-weight:bold;vertical-align:top;">version</td><td style="vertical-align:top;">:</td><td><div></div></td></tr></table></div></td></tr><tr><td style="font-weight:bold;vertical-align:top;">session_id_helpy</td><td style="vertical-align:top;">:</td><td><div>177.52.101.21-964cf87d-17a1-4213-8769-6c82d878b032<table><tr><td style="font-weight:bold;vertical-align:top;">comment</td><td style="vertical-align:top;">:</td><td><div></div></td></tr><tr><td style="font-weight:bold;vertical-align:top;">domain</td><td style="vertical-align:top;">:</td><td><div></div></td></tr><tr><td style="font-weight:bold;vertical-align:top;">expires</td><td style="vertical-align:top;">:</td><td><div></div></td></tr><tr><td style="font-weight:bold;vertical-align:top;">httponly</td><td style="vertical-align:top;">:</td><td><div></div></td></tr><tr><td style="font-weight:bold;vertical-align:top;">max-age</td><td style="vertical-align:top;">:</td><td><div></div></td></tr><tr><td style="font-weight:bold;vertical-align:top;">path</td><td style="vertical-align:top;">:</td><td><div></div></td></tr><tr><td style="font-weight:bold;vertical-align:top;">secure</td><td style="vertical-align:top;">:</td><td><div></div></td></tr><tr><td style="font-weight:bold;vertical-align:top;">version</td><td style="vertical-align:top;">:</td><td><div></div></td></tr></table></div></td></tr><tr><td style="font-weight:bold;vertical-align:top;">session_id_welcome</td><td style="vertical-align:top;">:</td><td><div>177.52.101.21-ece763d1-1b0a-4dbf-9682-aa49b27288d3<table><tr><td style="font-weight:bold;vertical-align:top;">comment</td><td style="vertical-align:top;">:</td><td><div></div></td></tr><tr><td style="font-weight:bold;vertical-align:top;">domain</td><td style="vertical-align:top;">:</td><td><div></div></td></tr><tr><td style="font-weight:bold;vertical-align:top;">expires</td><td style="vertical-align:top;">:</td><td><div></div></td></tr><tr><td style="font-weight:bold;vertical-align:top;">httponly</td><td style="vertical-align:top;">:</td><td><div></div></td></tr><tr><td style="font-weight:bold;vertical-align:top;">max-age</td><td style="vertical-align:top;">:</td><td><div></div></td></tr><tr><td style="font-weight:bold;vertical-align:top;">path</td><td style="vertical-align:top;">:</td><td><div></div></td></tr><tr><td style="font-weight:bold;vertical-align:top;">secure</td><td style="vertical-align:top;">:</td><td><div></div></td></tr><tr><td style="font-weight:bold;vertical-align:top;">version</td><td style="vertical-align:top;">:</td><td><div></div></td></tr></table></div></td></tr></table></div></td></tr><tr><td style="font-weight:bold;vertical-align:top;">env</td><td style="vertical-align:top;">:</td><td><div><table><tr><td style="font-weight:bold;vertical-align:top;">CONTENT_LENGTH</td><td style="vertical-align:top;">:</td><td><div></div></td></tr><tr><td style="font-weight:bold;vertical-align:top;">CONTENT_TYPE</td><td style="vertical-align:top;">:</td><td><div></div></td></tr><tr><td style="font-weight:bold;vertical-align:top;">DOCUMENT_ROOT</td><td style="vertical-align:top;">:</td><td><div>/usr/local/openresty/nginx/html</div></td></tr><tr><td style="font-weight:bold;vertical-align:top;">HTTPS</td><td style="vertical-align:top;">:</td><td><div>on</div></td></tr><tr><td style="font-weight:bold;vertical-align:top;">HTTP_ACCEPT</td><td style="vertical-align:top;">:</td><td><div>text/html,application/xhtml+xml,application/xml;q=0.9,image/webp,*/*;q=0.8</div></td></tr><tr><td style="font-weight:bold;vertical-align:top;">HTTP_ACCEPT_ENCODING</td><td style="vertical-align:top;">:</td><td><div>gzip, deflate, sdch, br</div></td></tr><tr><td style="font-weight:bold;vertical-align:top;">HTTP_ACCEPT_LANGUAGE</td><td style="vertical-align:top;">:</td><td><div>pt-BR,pt;q=0.8,en-US;q=0.6,en;q=0.4</div></td></tr><tr><td style="font-weight:bold;vertical-align:top;">HTTP_CACHE_CONTROL</td><td style="vertical-align:top;">:</td><td><div>max-age=0</div></td></tr><tr><td style="font-weight:bold;vertical-align:top;">HTTP_CONNECTION</td><td style="vertical-align:top;">:</td><td><div>close</div></td></tr><tr><td style="font-weight:bold;vertical-align:top;">HTTP_COOKIE</td><td style="vertical-align:top;">:</td><td><div>session_id_welcome=177.52.101.21-ece763d1-1b0a-4dbf-9682-aa49b27288d3; _ga=GA1.2.617993834.1463488187; session_id_helpy=177.52.101.21-964cf87d-17a1-4213-8769-6c82d878b032; session_id_admin=177.52.101.21-2f8bf020-2905-47a6-a38c-359bd4336714</div></td></tr><tr><td style="font-weight:bold;vertical-align:top;">HTTP_HOST</td><td style="vertical-align:top;">:</td><td><div>diegocunha.pythonanywhere.com</div></td></tr><tr><td style="font-weight:bold;vertical-align:top;">HTTP_UPGRADE_INSECURE_REQUESTS</td><td style="vertical-align:top;">:</td><td><div>1</div></td></tr><tr><td style="font-weight:bold;vertical-align:top;">HTTP_USER_AGENT</td><td style="vertical-align:top;">:</td><td><div>Mozilla/5.0 (Windows NT 6.1; Win64; x64) AppleWebKit/537.36 (KHTML, like Gecko) Chrome/51.0.2704.84 Safari/537.36</div></td></tr><tr><td style="font-weight:bold;vertical-align:top;">HTTP_X_FORWARDED_FOR</td><td style="vertical-align:top;">:</td><td><div>177.52.101.21</div></td></tr><tr><td style="font-weight:bold;vertical-align:top;">HTTP_X_REAL_IP</td><td style="vertical-align:top;">:</td><td><div>177.52.101.21</div></td></tr><tr><td style="font-weight:bold;vertical-align:top;">PATH_INFO</td><td style="vertical-align:top;">:</td><td><div>/Helpy/dashboard/index</div></td></tr><tr><td style="font-weight:bold;vertical-align:top;">QUERY_STRING</td><td style="vertical-align:top;">:</td><td><div></div></td></tr><tr><td style="font-weight:bold;vertical-align:top;">REMOTE_ADDR</td><td style="vertical-align:top;">:</td><td><div>10.111.216.9</div></td></tr><tr><td style="font-weight:bold;vertical-align:top;">REMOTE_PORT</td><td style="vertical-align:top;">:</td><td><div>38198</div></td></tr><tr><td style="font-weight:bold;vertical-align:top;">REQUEST_METHOD</td><td style="vertical-align:top;">:</td><td><div>GET</div></td></tr><tr><td style="font-weight:bold;vertical-align:top;">REQUEST_URI</td><td style="vertical-align:top;">:</td><td><div>/Helpy/dashboard/index</div></td></tr><tr><td style="font-weight:bold;vertical-align:top;">SCRIPT_NAME</td><td style="vertical-align:top;">:</td><td><div></div></td></tr><tr><td style="font-weight:bold;vertical-align:top;">SERVER_NAME</td><td style="vertical-align:top;">:</td><td><div>diegocunha.pythonanywhere.com</div></td></tr><tr><td style="font-weight:bold;vertical-align:top;">SERVER_PORT</td><td style="vertical-align:top;">:</td><td><div>443</div></td></tr><tr><td style="font-weight:bold;vertical-align:top;">SERVER_PROTOCOL</td><td style="vertical-align:top;">:</td><td><div>HTTP/1.1</div></td></tr><tr><td style="font-weight:bold;vertical-align:top;">app_folders</td><td style="vertical-align:top;">:</td><td><div>set([&#x27;/home/diegocunha/web2py/applications/welcome/&#x27;, &#x27;/home/diegocunha/web2py/applications/admin/&#x27;, &#x27;/home/diegocunha/web2py/applications/Helpy/&#x27;])</div></td></tr><tr><td style="font-weight:bold;vertical-align:top;">applications_parent</td><td style="vertical-align:top;">:</td><td><div>/home/diegocunha/web2py</div></td></tr><tr><td style="font-weight:bold;vertical-align:top;">content_length</td><td style="vertical-align:top;">:</td><td><div></div></td></tr><tr><td style="font-weight:bold;vertical-align:top;">content_type</td><td style="vertical-align:top;">:</td><td><div></div></td></tr><tr><td style="font-weight:bold;vertical-align:top;">db_sessions</td><td style="vertical-align:top;">:</td><td><div>set([])</div></td></tr><tr><td style="font-weight:bold;vertical-align:top;">debugging</td><td style="vertical-align:top;">:</td><td><div>True</div></td></tr><tr><td style="font-weight:bold;vertical-align:top;">document_root</td><td style="vertical-align:top;">:</td><td><div>/usr/local/openresty/nginx/html</div></td></tr><tr><td style="font-weight:bold;vertical-align:top;">gluon_parent</td><td style="vertical-align:top;">:</td><td><div>/home/diegocunha/web2py</div></td></tr><tr><td style="font-weight:bold;vertical-align:top;">http_accept</td><td style="vertical-align:top;">:</td><td><div>text/html,application/xhtml+xml,application/xml;q=0.9,image/webp,*/*;q=0.8</div></td></tr><tr><td style="font-weight:bold;vertical-align:top;">http_accept_encoding</td><td style="vertical-align:top;">:</td><td><div>gzip, deflate, sdch, br</div></td></tr><tr><td style="font-weight:bold;vertical-align:top;">http_accept_language</td><td style="vertical-align:top;">:</td><td><div>pt-BR,pt;q=0.8,en-US;q=0.6,en;q=0.4</div></td></tr><tr><td style="font-weight:bold;vertical-align:top;">http_cache_control</td><td style="vertical-align:top;">:</td><td><div>max-age=0</div></td></tr><tr><td style="font-weight:bold;vertical-align:top;">http_connection</td><td style="vertical-align:top;">:</td><td><div>close</div></td></tr><tr><td style="font-weight:bold;vertical-align:top;">http_cookie</td><td style="vertical-align:top;">:</td><td><div>session_id_welcome=177.52.101.21-ece763d1-1b0a-4dbf-9682-aa49b27288d3; _ga=GA1.2.617993834.1463488187; session_id_helpy=177.52.101.21-964cf87d-17a1-4213-8769-6c82d878b032; session_id_admin=177.52.101.21-2f8bf020-2905-47a6-a38c-359bd4336714</div></td></tr><tr><td style="font-weight:bold;vertical-align:top;">http_host</td><td style="vertical-align:top;">:</td><td><div>diegocunha.pythonanywhere.com</div></td></tr><tr><td style="font-weight:bold;vertical-align:top;">http_upgrade_insecure_requests</td><td style="vertical-align:top;">:</td><td><div>1</div></td></tr><tr><td style="font-weight:bold;vertical-align:top;">http_user_agent</td><td style="vertical-align:top;">:</td><td><div>Mozilla/5.0 (Windows NT 6.1; Win64; x64) AppleWebKit/537.36 (KHTML, like Gecko) Chrome/51.0.2704.84 Safari/537.36</div></td></tr><tr><td style="font-weight:bold;vertical-align:top;">http_x_forwarded_for</td><td style="vertical-align:top;">:</td><td><div>177.52.101.21</div></td></tr><tr><td style="font-weight:bold;vertical-align:top;">http_x_real_ip</td><td style="vertical-align:top;">:</td><td><div>177.52.101.21</div></td></tr><tr><td style="font-weight:bold;vertical-align:top;">https</td><td style="vertical-align:top;">:</td><td><div>on</div></td></tr><tr><td style="font-weight:bold;vertical-align:top;">is_jython</td><td style="vertical-align:top;">:</td><td><div>False</div></td></tr><tr><td style="font-weight:bold;vertical-align:top;">is_pypy</td><td style="vertical-align:top;">:</td><td><div>False</div></td></tr><tr><td style="font-weight:bold;vertical-align:top;">is_source</td><td style="vertical-align:top;">:</td><td><div>True</div></td></tr><tr><td style="font-weight:bold;vertical-align:top;">local_hosts</td><td style="vertical-align:top;">:</td><td><div><table><tr><td><div>giles-liveweb8</div></td></tr><tr><td><div>::ffff:127.0.0.1</div></td></tr><tr><td><div>::1</div></td></tr><tr><td><div>50.19.109.98</div></td></tr><tr><td><div>localhost</div></td></tr><tr><td><div>diegocunha.pythonanywhere.com</div></td></tr><tr><td><div>127.0.0.1</div></td></tr></table></div></td></tr><tr><td style="font-weight:bold;vertical-align:top;">path_info</td><td style="vertical-align:top;">:</td><td><div>/Helpy/dashboard/index</div></td></tr><tr><td style="font-weight:bold;vertical-align:top;">query_string</td><td style="vertical-align:top;">:</td><td><div></div></td></tr><tr><td style="font-weight:bold;vertical-align:top;">remote_addr</td><td style="vertical-align:top;">:</td><td><div>10.111.216.9</div></td></tr><tr><td style="font-weight:bold;vertical-align:top;">remote_port</td><td style="vertical-align:top;">:</td><td><div>38198</div></td></tr><tr><td style="font-weight:bold;vertical-align:top;">request_method</td><td style="vertical-align:top;">:</td><td><div>GET</div></td></tr><tr><td style="font-weight:bold;vertical-align:top;">request_uri</td><td style="vertical-align:top;">:</td><td><div>/Helpy/dashboard/index</div></td></tr><tr><td style="font-weight:bold;vertical-align:top;">script_name</td><td style="vertical-align:top;">:</td><td><div></div></td></tr><tr><td style="font-weight:bold;vertical-align:top;">server_name</td><td style="vertical-align:top;">:</td><td><div>diegocunha.pythonanywhere.com</div></td></tr><tr><td style="font-weight:bold;vertical-align:top;">server_port</td><td style="vertical-align:top;">:</td><td><div>443</div></td></tr><tr><td style="font-weight:bold;vertical-align:top;">server_protocol</td><td style="vertical-align:top;">:</td><td><div>HTTP/1.1</div></td></tr><tr><td style="font-weight:bold;vertical-align:top;">uwsgi.node</td><td style="vertical-align:top;">:</td><td><div>giles-liveweb8</div></td></tr><tr><td style="font-weight:bold;vertical-align:top;">uwsgi.version</td><td style="vertical-align:top;">:</td><td><div>2.0.5.1</div></td></tr><tr><td style="font-weight:bold;vertical-align:top;">uwsgi_node</td><td style="vertical-align:top;">:</td><td><div>giles-liveweb8</div></td></tr><tr><td style="font-weight:bold;vertical-align:top;">uwsgi_version</td><td style="vertical-align:top;">:</td><td><div>2.0.5.1</div></td></tr><tr><td style="font-weight:bold;vertical-align:top;">web2py_path</td><td style="vertical-align:top;">:</td><td><div>/home/diegocunha/web2py</div></td></tr><tr><td style="font-weight:bold;vertical-align:top;">web2py_version</td><td style="vertical-align:top;">:</td><td><div>2.14.6-stable+timestamp.2016.05.10.00.21.47</div></td></tr><tr><td style="font-weight:bold;vertical-align:top;">wsgi.errors</td><td style="vertical-align:top;">:</td><td><div>&lt;uwsgi_file__bin_user_wsgi_wrapper.ErrorLogFile object at 0x7f2cc51e0290&gt;</div></td></tr><tr><td style="font-weight:bold;vertical-align:top;">wsgi.file_wrapper</td><td style="vertical-align:top;">:</td><td><div>&lt;built-in function uwsgi_sendfile&gt;</div></td></tr><tr><td style="font-weight:bold;vertical-align:top;">wsgi.input</td><td style="vertical-align:top;">:</td><td><div>&lt;uwsgi._Input object at 0x7f2ccf694d20&gt;</div></td></tr><tr><td style="font-weight:bold;vertical-align:top;">wsgi.multiprocess</td><td style="vertical-align:top;">:</td><td><div>False</div></td></tr><tr><td style="font-weight:bold;vertical-align:top;">wsgi.multithread</td><td style="vertical-align:top;">:</td><td><div>False</div></td></tr><tr><td style="font-weight:bold;vertical-align:top;">wsgi.run_once</td><td style="vertical-align:top;">:</td><td><div>False</div></td></tr><tr><td style="font-weight:bold;vertical-align:top;">wsgi.url_scheme</td><td style="vertical-align:top;">:</td><td><div>https</div></td></tr><tr><td style="font-weight:bold;vertical-align:top;">wsgi.version</td><td style="vertical-align:top;">:</td><td><div><table><tr><td><div>1</div></td></tr><tr><td><div>0</div></td></tr></table></div></td></tr><tr><td style="font-weight:bold;vertical-align:top;">wsgi_errors</td><td style="vertical-align:top;">:</td><td><div>&lt;uwsgi_file__bin_user_wsgi_wrapper.ErrorLogFile object at 0x7f2cc51e0290&gt;</div></td></tr><tr><td style="font-weight:bold;vertical-align:top;">wsgi_file_wrapper</td><td style="vertical-align:top;">:</td><td><div>&lt;built-in function uwsgi_sendfile&gt;</div></td></tr><tr><td style="font-weight:bold;vertical-align:top;">wsgi_input</td><td style="vertical-align:top;">:</td><td><div>&lt;uwsgi._Input object at 0x7f2ccf694d20&gt;</div></td></tr><tr><td style="font-weight:bold;vertical-align:top;">wsgi_multiprocess</td><td style="vertical-align:top;">:</td><td><div>False</div></td></tr><tr><td style="font-weight:bold;vertical-align:top;">wsgi_multithread</td><td style="vertical-align:top;">:</td><td><div>False</div></td></tr><tr><td style="font-weight:bold;vertical-align:top;">wsgi_run_once</td><td style="vertical-align:top;">:</td><td><div>False</div></td></tr><tr><td style="font-weight:bold;vertical-align:top;">wsgi_url_scheme</td><td style="vertical-align:top;">:</td><td><div>https</div></td></tr><tr><td style="font-weight:bold;vertical-align:top;">wsgi_version</td><td style="vertical-align:top;">:</td><td><div><table><tr><td><div>1</div></td></tr><tr><td><div>0</div></td></tr></table></div></td></tr></table></div></td></tr><tr><td style="font-weight:bold;vertical-align:top;">extension</td><td style="vertical-align:top;">:</td><td><div>html</div></td></tr><tr><td style="font-weight:bold;vertical-align:top;">folder</td><td style="vertical-align:top;">:</td><td><div>/home/diegocunha/web2py/applications/Helpy/</div></td></tr><tr><td style="font-weight:bold;vertical-align:top;">function</td><td style="vertical-align:top;">:</td><td><div>index</div></td></tr><tr><td style="font-weight:bold;vertical-align:top;">global_settings</td><td style="vertical-align:top;">:</td><td><div><table><tr><td style="font-weight:bold;vertical-align:top;">app_folders</td><td style="vertical-align:top;">:</td><td><div>set([&#x27;/home/diegocunha/web2py/applications/welcome/&#x27;, &#x27;/home/diegocunha/web2py/applications/admin/&#x27;, &#x27;/home/diegocunha/web2py/applications/Helpy/&#x27;])</div></td></tr><tr><td style="font-weight:bold;vertical-align:top;">applications_parent</td><td style="vertical-align:top;">:</td><td><div>/home/diegocunha/web2py</div></td></tr><tr><td style="font-weight:bold;vertical-align:top;">db_sessions</td><td style="vertical-align:top;">:</td><td><div>set([])</div></td></tr><tr><td style="font-weight:bold;vertical-align:top;">debugging</td><td style="vertical-align:top;">:</td><td><div>True</div></td></tr><tr><td style="font-weight:bold;vertical-align:top;">gluon_parent</td><td style="vertical-align:top;">:</td><td><div>/home/diegocunha/web2py</div></td></tr><tr><td style="font-weight:bold;vertical-align:top;">is_jython</td><td style="vertical-align:top;">:</td><td><div>False</div></td></tr><tr><td style="font-weight:bold;vertical-align:top;">is_pypy</td><td style="vertical-align:top;">:</td><td><div>False</div></td></tr><tr><td style="font-weight:bold;vertical-align:top;">is_source</td><td style="vertical-align:top;">:</td><td><div>True</div></td></tr><tr><td style="font-weight:bold;vertical-align:top;">local_hosts</td><td style="vertical-align:top;">:</td><td><div><table><tr><td><div>giles-liveweb8</div></td></tr><tr><td><div>::ffff:127.0.0.1</div></td></tr><tr><td><div>::1</div></td></tr><tr><td><div>50.19.109.98</div></td></tr><tr><td><div>localhost</div></td></tr><tr><td><div>diegocunha.pythonanywhere.com</div></td></tr><tr><td><div>127.0.0.1</div></td></tr></table></div></td></tr><tr><td style="font-weight:bold;vertical-align:top;">web2py_version</td><td style="vertical-align:top;">:</td><td><div>2.14.6-stable+timestamp.2016.05.10.00.21.47</div></td></tr></table></div></td></tr><tr><td style="font-weight:bold;vertical-align:top;">is_https</td><td style="vertical-align:top;">:</td><td><div>True</div></td></tr><tr><td style="font-weight:bold;vertical-align:top;">is_local</td><td style="vertical-align:top;">:</td><td><div>False</div></td></tr><tr><td style="font-weight:bold;vertical-align:top;">is_restful</td><td style="vertical-align:top;">:</td><td><div>False</div></td></tr><tr><td style="font-weight:bold;vertical-align:top;">is_scheduler</td><td style="vertical-align:top;">:</td><td><div>False</div></td></tr><tr><td style="font-weight:bold;vertical-align:top;">is_shell</td><td style="vertical-align:top;">:</td><td><div>False</div></td></tr><tr><td style="font-weight:bold;vertical-align:top;">now</td><td style="vertical-align:top;">:</td><td><div>datetime.datetime(2016, 6, 10, 20, 30, 17, 896385)</div></td></tr><tr><td style="font-weight:bold;vertical-align:top;">raw_args</td><td style="vertical-align:top;">:</td><td><div></div></td></tr><tr><td style="font-weight:bold;vertical-align:top;">raw_extension</td><td style="vertical-align:top;">:</td><td><div>None</div></td></tr><tr><td style="font-weight:bold;vertical-align:top;">url</td><td style="vertical-align:top;">:</td><td><div>/Helpy/dashboard/index</div></td></tr><tr><td style="font-weight:bold;vertical-align:top;">utcnow</td><td style="vertical-align:top;">:</td><td><div>datetime.datetime(2016, 6, 10, 20, 30, 17, 896404)</div></td></tr><tr><td style="font-weight:bold;vertical-align:top;">wsgi</td><td style="vertical-align:top;">:</td><td><div>&lt;gluon.main.LazyWSGI object at 0x7f2cb2ba58d0&gt;</div></td></tr></table></div>'
tRp70
sS'frames'
p71
(lp72
(dp73
S'file'
p74
S'/home/diegocunha/web2py/gluon/restricted.py'
p75
sS'dump'
p76
(dp77
S'code'
p78
S'\'response.write(\\\'<!DOCTYPE html>\\\\n<html>\\\\n<head>\\\\...(\\\'"></script>\\\\n</body>\\\\n</html>\\\\n\\\', escape=False)\''
p79
sS'layer'
p80
S"'/home/diegocunha/web2py/applications/Helpy/views/dashboard/index.html'"
p81
sS'global compile2'
p82
S'<function compile2>'
p83
sS'ccode'
p84
S'undefined'
p85
ssS'lnum'
p86
I226
sS'lines'
p87
(dp88
I224
S'            ccode = code'
p89
sI225
S'        else:'
p90
sI226
S'            ccode = compile2(code, layer)'
p91
sI227
S'        exec ccode in environment'
p92
sI228
S'    except HTTP:'
p93
sI229
S'        raise'
p94
sI230
S'    except RestrictedError:'
p95
sI221
S"    environment['__name__'] = '__restricted__'"
p96
sI222
S'    try:'
p97
sI223
S'        if isinstance(code, types.CodeType):'
p98
ssS'call'
p99
S'(code=\'response.write(\\\'<!DOCTYPE html>\\\\n<html>\\\\n<head>\\\\...(\\\'"></script>\\\\n</body>\\\\n</html>\\\\n\\\', escape=False)\', environment={\'A\': <class \'gluon.html.A\'>, \'ANY_OF\': <class \'gluon.validators.ANY_OF\'>, \'ASSIGNJS\': <function ASSIGNJS>, \'Auth\': <class \'gluon.tools.Auth\'>, \'B\': <class \'gluon.html.B\'>, \'BEAUTIFY\': <class \'gluon.html.BEAUTIFY\'>, \'BODY\': <class \'gluon.html.BODY\'>, \'BR\': <class \'gluon.html.BR\'>, \'BUTTON\': <class \'gluon.html.BUTTON\'>, \'CAT\': <class \'gluon.html.CAT\'>, ...}, layer=\'/home/diegocunha/web2py/applications/Helpy/views/dashboard/index.html\')'
p100
sS'func'
p101
S'restricted'
p102
sa(dp103
g74
S'/home/diegocunha/web2py/gluon/restricted.py'
p104
sg76
(dp105
S'builtincompile'
p106
S'<built-in function compile>'
p107
sS'code'
p108
S'\'response.write(\\\'<!DOCTYPE html>\\\\n<html>\\\\n<head>\\\\...(\\\'"></script>\\\\n</body>\\\\n</html>\\\\n\\\', escape=False)\''
p109
sS'code.rstrip'
p110
S'<built-in method rstrip of str object>'
p111
sS').replace'
p112
g85
sS'layer'
p113
S"'/home/diegocunha/web2py/applications/Helpy/views/dashboard/index.html'"
p114
ssg86
I209
sg87
(dp115
I204
S'def compile2(code, layer):'
p116
sI205
S'    """'
p117
sI206
S"    The ``+'\\\\n'`` is necessary else compile fails when code ends in a comment."
p118
sI207
S'    """'
p119
sI208
S''
sI209
S"    return compile(code.rstrip().replace('\\r\\n', '\\n') + '\\n', layer, 'exec')"
p120
sI210
S''
sI211
S''
sI212
S"def restricted(code, environment=None, layer='Unknown'):"
p121
sI213
S'    """'
p122
ssg99
S'(code=\'response.write(\\\'<!DOCTYPE html>\\\\n<html>\\\\n<head>\\\\...(\\\'"></script>\\\\n</body>\\\\n</html>\\\\n\\\', escape=False)\', layer=\'/home/diegocunha/web2py/applications/Helpy/views/dashboard/index.html\')'
p123
sg101
S'compile2'
p124
sasS'pyver'
p125
S'Python 2.7.6: /usr/local/bin/uwsgi (prefix: /usr)'
p126
sS'session'
p127
g69
(S's\x90\x0b\x00\x00<div><table><tr><td style="font-weight:bold;vertical-align:top;">auth</td><td style="vertical-align:top;">:</td><td><div><table><tr><td style="font-weight:bold;vertical-align:top;">expiration</td><td style="vertical-align:top;">:</td><td><div>3600</div></td></tr><tr><td style="font-weight:bold;vertical-align:top;">hmac_key</td><td style="vertical-align:top;">:</td><td><div>999819c0-8515-42d5-b7c4-900c9bd9f1c2</div></td></tr><tr><td style="font-weight:bold;vertical-align:top;">last_visit</td><td style="vertical-align:top;">:</td><td><div>datetime.datetime(2016, 6, 10, 20, 27, 46, 714313)</div></td></tr><tr><td style="font-weight:bold;vertical-align:top;">remember_me</td><td style="vertical-align:top;">:</td><td><div>False</div></td></tr><tr><td style="font-weight:bold;vertical-align:top;">user</td><td style="vertical-align:top;">:</td><td><div><table><tr><td style="font-weight:bold;vertical-align:top;">cliente_id</td><td style="vertical-align:top;">:</td><td><div>1L</div></td></tr><tr><td style="font-weight:bold;vertical-align:top;">email</td><td style="vertical-align:top;">:</td><td><div>diego2912@gmail.com</div></td></tr><tr><td style="font-weight:bold;vertical-align:top;">first_name</td><td style="vertical-align:top;">:</td><td><div>Diego</div></td></tr><tr><td style="font-weight:bold;vertical-align:top;">id</td><td style="vertical-align:top;">:</td><td><div>1L</div></td></tr><tr><td style="font-weight:bold;vertical-align:top;">is_admin</td><td style="vertical-align:top;">:</td><td><div>sim</div></td></tr><tr><td style="font-weight:bold;vertical-align:top;">is_atendente</td><td style="vertical-align:top;">:</td><td><div>sim</div></td></tr><tr><td style="font-weight:bold;vertical-align:top;">last_name</td><td style="vertical-align:top;">:</td><td><div>Cunha</div></td></tr><tr><td style="font-weight:bold;vertical-align:top;">registration_id</td><td style="vertical-align:top;">:</td><td><div></div></td></tr><tr><td style="font-weight:bold;vertical-align:top;">registration_key</td><td style="vertical-align:top;">:</td><td><div></div></td></tr><tr><td style="font-weight:bold;vertical-align:top;">reset_password_key</td><td style="vertical-align:top;">:</td><td><div></div></td></tr><tr><td style="font-weight:bold;vertical-align:top;">telefone</td><td style="vertical-align:top;">:</td><td><div>981114626</div></td></tr><tr><td style="font-weight:bold;vertical-align:top;">username</td><td style="vertical-align:top;">:</td><td><div>diegocunha</div></td></tr></table></div></td></tr><tr><td style="font-weight:bold;vertical-align:top;">user_groups</td><td style="vertical-align:top;">:</td><td><div><table><tr><td style="font-weight:bold;vertical-align:top;">1</td><td style="vertical-align:top;">:</td><td><div>user_1</div></td></tr></table></div></td></tr></table></div></td></tr><tr><td style="font-weight:bold;vertical-align:top;">flash</td><td style="vertical-align:top;">:</td><td><div>None</div></td></tr></table></div>'
tRp128
sS'etype'
p129
S"<type 'exceptions.SyntaxError'>"
p130
sS'date'
p131
S'Fri Jun 10 20:30:18 2016'
p132
sS'response'
p133
g69
(S'sT?\x00\x00<div><table><tr><td style="font-weight:bold;vertical-align:top;">body</td><td style="vertical-align:top;">:</td><td><div>&lt;cStringIO.StringO object at 0x7f2cb39ab0a0&gt;</div></td></tr><tr><td style="font-weight:bold;vertical-align:top;">cookies</td><td style="vertical-align:top;">:</td><td><div><table><tr><td style="font-weight:bold;vertical-align:top;">session_id_helpy</td><td style="vertical-align:top;">:</td><td><div>177.52.101.21-964cf87d-17a1-4213-8769-6c82d878b032<table><tr><td style="font-weight:bold;vertical-align:top;">comment</td><td style="vertical-align:top;">:</td><td><div></div></td></tr><tr><td style="font-weight:bold;vertical-align:top;">domain</td><td style="vertical-align:top;">:</td><td><div></div></td></tr><tr><td style="font-weight:bold;vertical-align:top;">expires</td><td style="vertical-align:top;">:</td><td><div></div></td></tr><tr><td style="font-weight:bold;vertical-align:top;">httponly</td><td style="vertical-align:top;">:</td><td><div></div></td></tr><tr><td style="font-weight:bold;vertical-align:top;">max-age</td><td style="vertical-align:top;">:</td><td><div></div></td></tr><tr><td style="font-weight:bold;vertical-align:top;">path</td><td style="vertical-align:top;">:</td><td><div>/</div></td></tr><tr><td style="font-weight:bold;vertical-align:top;">secure</td><td style="vertical-align:top;">:</td><td><div></div></td></tr><tr><td style="font-weight:bold;vertical-align:top;">version</td><td style="vertical-align:top;">:</td><td><div></div></td></tr></table></div></td></tr></table></div></td></tr><tr><td style="font-weight:bold;vertical-align:top;">delimiters</td><td style="vertical-align:top;">:</td><td><div><table><tr><td><div>{{</div></td></tr><tr><td><div>}}</div></td></tr></table></div></td></tr><tr><td style="font-weight:bold;vertical-align:top;">files</td><td style="vertical-align:top;">:</td><td><div><table></table></div></td></tr><tr><td style="font-weight:bold;vertical-align:top;">flash</td><td style="vertical-align:top;">:</td><td><div></div></td></tr><tr><td style="font-weight:bold;vertical-align:top;">form_label_separator</td><td style="vertical-align:top;">:</td><td><div>: </div></td></tr><tr><td style="font-weight:bold;vertical-align:top;">formstyle</td><td style="vertical-align:top;">:</td><td><div>table3cols</div></td></tr><tr><td style="font-weight:bold;vertical-align:top;">generic_patterns</td><td style="vertical-align:top;">:</td><td><div><table><tr><td><div>*</div></td></tr></table></div></td></tr><tr><td style="font-weight:bold;vertical-align:top;">google_analytics_id</td><td style="vertical-align:top;">:</td><td><div>None</div></td></tr><tr><td style="font-weight:bold;vertical-align:top;">headers</td><td style="vertical-align:top;">:</td><td><div><table><tr><td style="font-weight:bold;vertical-align:top;">X-Powered-By</td><td style="vertical-align:top;">:</td><td><div>web2py</div></td></tr></table></div></td></tr><tr><td style="font-weight:bold;vertical-align:top;">logo</td><td style="vertical-align:top;">:</td><td><div><a class="navbar-brand" href="http://www.web2py.com/" id="web2py-logo"><b>web<span>2</span>py</b>&trade;&nbsp;</a></div></td></tr><tr><td style="font-weight:bold;vertical-align:top;">menu</td><td style="vertical-align:top;">:</td><td><div><table><tr><td><div><table><tr><td><div>Principal</div></td></tr><tr><td><div>False</div></td></tr><tr><td><div>/Helpy/default/index</div></td></tr><tr><td><div><table></table></div></td></tr></table></div></td></tr><tr><td><div><table><tr><td><div>Meus sites</div></td></tr><tr><td><div>False</div></td></tr><tr><td><div>/admin/default/site</div></td></tr></table></div></td></tr><tr><td><div><table><tr><td><div>Esta aplica\xc3\xa7\xc3\xa3o</div></td></tr><tr><td><div>False</div></td></tr><tr><td><div>#</div></td></tr><tr><td><div><table><tr><td><div><table><tr><td><div>Design</div></td></tr><tr><td><div>False</div></td></tr><tr><td><div>/admin/default/design/Helpy</div></td></tr></table></div></td></tr><tr><td><div><li class="divider"></li></div></td></tr><tr><td><div><table><tr><td><div>Controlador</div></td></tr><tr><td><div>False</div></td></tr><tr><td><div>/admin/default/edit/Helpy/controllers/dashboard.py</div></td></tr></table></div></td></tr><tr><td><div><table><tr><td><div>Visualiza\xc3\xa7\xc3\xa3o</div></td></tr><tr><td><div>False</div></td></tr><tr><td><div>/admin/default/edit/Helpy/views/dashboard/index.html</div></td></tr></table></div></td></tr><tr><td><div><table><tr><td><div>Modelo BD</div></td></tr><tr><td><div>False</div></td></tr><tr><td><div>/admin/default/edit/Helpy/models/db.py</div></td></tr></table></div></td></tr><tr><td><div><table><tr><td><div>Modelo de Menu</div></td></tr><tr><td><div>False</div></td></tr><tr><td><div>/admin/default/edit/Helpy/models/menu.py</div></td></tr></table></div></td></tr><tr><td><div><table><tr><td><div>Config.ini</div></td></tr><tr><td><div>False</div></td></tr><tr><td><div>/admin/default/edit/Helpy/private/appconfig.ini</div></td></tr></table></div></td></tr><tr><td><div><table><tr><td><div>Layout</div></td></tr><tr><td><div>False</div></td></tr><tr><td><div>/admin/default/edit/Helpy/views/layout.html</div></td></tr></table></div></td></tr><tr><td><div><table><tr><td><div>Folha de estilo</div></td></tr><tr><td><div>False</div></td></tr><tr><td><div>/admin/default/edit/Helpy/static/css/web2py-bootstrap3.css</div></td></tr></table></div></td></tr><tr><td><div><table><tr><td><div>banco de dados</div></td></tr><tr><td><div>False</div></td></tr><tr><td><div>/Helpy/appadmin/index</div></td></tr></table></div></td></tr><tr><td><div><table><tr><td><div>Erros</div></td></tr><tr><td><div>False</div></td></tr><tr><td><div>/admin/default/errors/Helpy</div></td></tr></table></div></td></tr><tr><td><div><table><tr><td><div>Sobre</div></td></tr><tr><td><div>False</div></td></tr><tr><td><div>/admin/default/about/Helpy</div></td></tr></table></div></td></tr></table></div></td></tr></table></div></td></tr><tr><td><div><table><tr><td><div>web2py.com</div></td></tr><tr><td><div>False</div></td></tr><tr><td><div>#</div></td></tr><tr><td><div><table><tr><td><div><table><tr><td><div>Download</div></td></tr><tr><td><div>False</div></td></tr><tr><td><div>http://www.web2py.com/examples/default/download</div></td></tr></table></div></td></tr><tr><td><div><table><tr><td><div>Suporte</div></td></tr><tr><td><div>False</div></td></tr><tr><td><div>http://www.web2py.com/examples/default/support</div></td></tr></table></div></td></tr><tr><td><div><table><tr><td><div>Demo</div></td></tr><tr><td><div>False</div></td></tr><tr><td><div>http://web2py.com/demo_admin</div></td></tr></table></div></td></tr><tr><td><div><table><tr><td><div>Exemplos r\xc3\xa1pidos</div></td></tr><tr><td><div>False</div></td></tr><tr><td><div>http://web2py.com/examples/default/examples</div></td></tr></table></div></td></tr><tr><td><div><table><tr><td><div>Perguntas frequentes</div></td></tr><tr><td><div>False</div></td></tr><tr><td><div>http://web2py.com/AlterEgo</div></td></tr></table></div></td></tr><tr><td><div><table><tr><td><div>V\xc3\xaddeos</div></td></tr><tr><td><div>False</div></td></tr><tr><td><div>http://www.web2py.com/examples/default/videos/</div></td></tr></table></div></td></tr><tr><td><div><table><tr><td><div>Aplica\xc3\xa7\xc3\xb5es gratuitas</div></td></tr><tr><td><div>False</div></td></tr><tr><td><div>http://web2py.com/appliances</div></td></tr></table></div></td></tr><tr><td><div><table><tr><td><div>Plugins</div></td></tr><tr><td><div>False</div></td></tr><tr><td><div>http://web2py.com/plugins</div></td></tr></table></div></td></tr><tr><td><div><table><tr><td><div>Receitas</div></td></tr><tr><td><div>False</div></td></tr><tr><td><div>http://web2pyslices.com/</div></td></tr></table></div></td></tr></table></div></td></tr></table></div></td></tr><tr><td><div><table><tr><td><div>Documenta\xc3\xa7\xc3\xa3o</div></td></tr><tr><td><div>False</div></td></tr><tr><td><div>#</div></td></tr><tr><td><div><table><tr><td><div><table><tr><td><div>Online book</div></td></tr><tr><td><div>False</div></td></tr><tr><td><div>http://www.web2py.com/book</div></td></tr></table></div></td></tr><tr><td><div><li class="divider"></li></div></td></tr><tr><td><div><table><tr><td><div>Pref\xc3\xa1cio</div></td></tr><tr><td><div>False</div></td></tr><tr><td><div>http://www.web2py.com/book/default/chapter/00</div></td></tr></table></div></td></tr><tr><td><div><table><tr><td><div>Introdu\xc3\xa7\xc3\xa3o</div></td></tr><tr><td><div>False</div></td></tr><tr><td><div>http://www.web2py.com/book/default/chapter/01</div></td></tr></table></div></td></tr><tr><td><div><table><tr><td><div>Python</div></td></tr><tr><td><div>False</div></td></tr><tr><td><div>http://www.web2py.com/book/default/chapter/02</div></td></tr></table></div></td></tr><tr><td><div><table><tr><td><div>Vis\xc3\xa3o Geral</div></td></tr><tr><td><div>False</div></td></tr><tr><td><div>http://www.web2py.com/book/default/chapter/03</div></td></tr></table></div></td></tr><tr><td><div><table><tr><td><div>The Core</div></td></tr><tr><td><div>False</div></td></tr><tr><td><div>http://www.web2py.com/book/default/chapter/04</div></td></tr></table></div></td></tr><tr><td><div><table><tr><td><div>As views</div></td></tr><tr><td><div>False</div></td></tr><tr><td><div>http://www.web2py.com/book/default/chapter/05</div></td></tr></table></div></td></tr><tr><td><div><table><tr><td><div>banco de dados</div></td></tr><tr><td><div>False</div></td></tr><tr><td><div>http://www.web2py.com/book/default/chapter/06</div></td></tr></table></div></td></tr><tr><td><div><table><tr><td><div>Formul\xc3\xa1rios e Validadores</div></td></tr><tr><td><div>False</div></td></tr><tr><td><div>http://www.web2py.com/book/default/chapter/07</div></td></tr></table></div></td></tr><tr><td><div><table><tr><td><div>Email e SMS</div></td></tr><tr><td><div>False</div></td></tr><tr><td><div>http://www.web2py.com/book/default/chapter/08</div></td></tr></table></div></td></tr><tr><td><div><table><tr><td><div>Controle de Acesso</div></td></tr><tr><td><div>False</div></td></tr><tr><td><div>http://www.web2py.com/book/default/chapter/09</div></td></tr></table></div></td></tr><tr><td><div><table><tr><td><div>Servi\xc3\xa7o</div></td></tr><tr><td><div>False</div></td></tr><tr><td><div>http://www.web2py.com/book/default/chapter/10</div></td></tr></table></div></td></tr><tr><td><div><table><tr><td><div>Receitas de Ajax</div></td></tr><tr><td><div>False</div></td></tr><tr><td><div>http://www.web2py.com/book/default/chapter/11</div></td></tr></table></div></td></tr><tr><td><div><table><tr><td><div>Componentes e Plugins</div></td></tr><tr><td><div>False</div></td></tr><tr><td><div>http://www.web2py.com/book/default/chapter/12</div></td></tr></table></div></td></tr><tr><td><div><table><tr><td><div>Receitas de deploy</div></td></tr><tr><td><div>False</div></td></tr><tr><td><div>http://www.web2py.com/book/default/chapter/13</div></td></tr></table></div></td></tr><tr><td><div><table><tr><td><div>Outras Receitas</div></td></tr><tr><td><div>False</div></td></tr><tr><td><div>http://www.web2py.com/book/default/chapter/14</div></td></tr></table></div></td></tr><tr><td><div><table><tr><td><div>Helping web2py</div></td></tr><tr><td><div>False</div></td></tr><tr><td><div>http://www.web2py.com/book/default/chapter/15</div></td></tr></table></div></td></tr><tr><td><div><table><tr><td><div>Compre o livro web2py\'s</div></td></tr><tr><td><div>False</div></td></tr><tr><td><div>http://stores.lulu.com/web2py</div></td></tr></table></div></td></tr></table></div></td></tr></table></div></td></tr><tr><td><div><table><tr><td><div>Comunidade</div></td></tr><tr><td><div>False</div></td></tr><tr><td><div>None</div></td></tr><tr><td><div><table><tr><td><div><table><tr><td><div>Grupos</div></td></tr><tr><td><div>False</div></td></tr><tr><td><div>http://www.web2py.com/examples/default/usergroups</div></td></tr></table></div></td></tr><tr><td><div><table><tr><td><div>Twitter</div></td></tr><tr><td><div>False</div></td></tr><tr><td><div>http://twitter.com/web2py</div></td></tr></table></div></td></tr><tr><td><div><table><tr><td><div>Chat ao vivo</div></td></tr><tr><td><div>False</div></td></tr><tr><td><div>http://webchat.freenode.net/?channels=web2py</div></td></tr></table></div></td></tr></table></div></td></tr></table></div></td></tr></table></div></td></tr><tr><td style="font-weight:bold;vertical-align:top;">meta</td><td style="vertical-align:top;">:</td><td><div><table><tr><td style="font-weight:bold;vertical-align:top;">author</td><td style="vertical-align:top;">:</td><td><div>Your Name &lt;you@example.com&gt;</div></td></tr><tr><td style="font-weight:bold;vertical-align:top;">description</td><td style="vertical-align:top;">:</td><td><div>a cool new app</div></td></tr><tr><td style="font-weight:bold;vertical-align:top;">generator</td><td style="vertical-align:top;">:</td><td><div>Web2py Web Framework</div></td></tr><tr><td style="font-weight:bold;vertical-align:top;">keywords</td><td style="vertical-align:top;">:</td><td><div>web2py, python, framework</div></td></tr></table></div></td></tr><tr><td style="font-weight:bold;vertical-align:top;">models_to_run</td><td style="vertical-align:top;">:</td><td><div><table><tr><td><div>^\\w+\\.py$</div></td></tr><tr><td><div>^dashboard/\\w+\\.py$</div></td></tr><tr><td><div>^dashboard/index/\\w+\\.py$</div></td></tr></table></div></td></tr><tr><td style="font-weight:bold;vertical-align:top;">postprocessing</td><td style="vertical-align:top;">:</td><td><div><table></table></div></td></tr><tr><td style="font-weight:bold;vertical-align:top;">session_client</td><td style="vertical-align:top;">:</td><td><div>177.52.101.21</div></td></tr><tr><td style="font-weight:bold;vertical-align:top;">session_cookie_compression_level</td><td style="vertical-align:top;">:</td><td><div>None</div></td></tr><tr><td style="font-weight:bold;vertical-align:top;">session_cookie_expires</td><td style="vertical-align:top;">:</td><td><div>None</div></td></tr><tr><td style="font-weight:bold;vertical-align:top;">session_data_name</td><td style="vertical-align:top;">:</td><td><div>session_data_helpy</div></td></tr><tr><td style="font-weight:bold;vertical-align:top;">session_file</td><td style="vertical-align:top;">:</td><td><div>&lt;open file &#x27;/home/diegocunha/web2py/applications/Helpy/sessions/192/0a5/177.52.101.21-964cf87d-17a1-4213-8769-6c82d878b032&#x27;, mode &#x27;rb+&#x27; at 0x7f2cb27c4d20&gt;</div></td></tr><tr><td style="font-weight:bold;vertical-align:top;">session_filename</td><td style="vertical-align:top;">:</td><td><div>/home/diegocunha/web2py/applications/Helpy/sessions/177.52.101.21-964cf87d-17a1-4213-8769-6c82d878b032</div></td></tr><tr><td style="font-weight:bold;vertical-align:top;">session_hash</td><td style="vertical-align:top;">:</td><td><div>dd71c56ff5ad5fb20880cf5ca68326be</div></td></tr><tr><td style="font-weight:bold;vertical-align:top;">session_id</td><td style="vertical-align:top;">:</td><td><div>177.52.101.21-964cf87d-17a1-4213-8769-6c82d878b032</div></td></tr><tr><td style="font-weight:bold;vertical-align:top;">session_id_name</td><td style="vertical-align:top;">:</td><td><div>session_id_helpy</div></td></tr><tr><td style="font-weight:bold;vertical-align:top;">session_locked</td><td style="vertical-align:top;">:</td><td><div>True</div></td></tr><tr><td style="font-weight:bold;vertical-align:top;">session_masterapp</td><td style="vertical-align:top;">:</td><td><div>Helpy</div></td></tr><tr><td style="font-weight:bold;vertical-align:top;">session_new</td><td style="vertical-align:top;">:</td><td><div>False</div></td></tr><tr><td style="font-weight:bold;vertical-align:top;">session_storage_type</td><td style="vertical-align:top;">:</td><td><div>file</div></td></tr><tr><td style="font-weight:bold;vertical-align:top;">status</td><td style="vertical-align:top;">:</td><td><div>200</div></td></tr><tr><td style="font-weight:bold;vertical-align:top;">subtitle</td><td style="vertical-align:top;">:</td><td><div></div></td></tr><tr><td style="font-weight:bold;vertical-align:top;">title</td><td style="vertical-align:top;">:</td><td><div>Helpy</div></td></tr><tr><td style="font-weight:bold;vertical-align:top;">view</td><td style="vertical-align:top;">:</td><td><div>dashboard/index.html</div></td></tr></table></div>'
tRp134
sS'locals'
p135
(dp136
g4
S"'/home/diegocunha/web2py/applications/Helpy/views/dashboard/index.html'"
p137
sg6
S'\'response.write(\\\'<!DOCTYPE html>\\\\n<html>\\\\n<head>\\\\...(\\\'"></script>\\\\n</body>\\\\n</html>\\\\n\\\', escape=False)\''
p138
sssS'traceback'
p139
S'Traceback (most recent call last):\n  File "/home/diegocunha/web2py/gluon/restricted.py", line 226, in restricted\n    ccode = compile2(code, layer)\n  File "/home/diegocunha/web2py/gluon/restricted.py", line 209, in compile2\n    return compile(code.rstrip().replace(\'\\r\\n\', \'\\n\') + \'\\n\', layer, \'exec\')\n  File "/home/diegocunha/web2py/applications/Helpy/views/dashboard/index.html", line 46\n    response.write(URL(\'static\', \'AdminLTE-2.3.3/dist/img/user4-128x128.jpg\')))\n                                                                              ^\nSyntaxError: invalid syntax\n'
p140
s.