(dp1
S'output'
p2
S'missing "pass" in view'
p3
sS'layer'
p4
S'ParserContainer'
p5
sS'code'
p6
S'response.write(\'<!DOCTYPE html>\\n<html>\\n<head>\\n  <meta charset="utf-8">\\n  <meta http-equiv="X-UA-Compatible" content="IE=edge">\\n  <title>Helpy | Log in</title>\\n  <!-- Tell the browser to be responsive to screen width -->\\n  <meta content="width=device-width, initial-scale=1, maximum-scale=1, user-scalable=no" name="viewport">\\n  <!-- Bootstrap 3.3.6 -->\\n  <link rel="stylesheet" href="\', escape=False)\nresponse.write(URL(\'static\',\'AdminLTE-2.3.3/bootstrap/css/bootstrap.min.css\'))\nresponse.write(\'">\\n  <!-- Font Awesome -->\\n  <link rel="stylesheet" href="https://cdnjs.cloudflare.com/ajax/libs/font-awesome/4.5.0/css/font-awesome.min.css">\\n  <!-- Ionicons -->\\n  <link rel="stylesheet" href="https://cdnjs.cloudflare.com/ajax/libs/ionicons/2.0.1/css/ionicons.min.css">\\n  <!-- Theme style -->\\n  <link rel="stylesheet" href="\', escape=False)\nresponse.write(URL(\'static\',\'AdminLTE-2.3.3/dist/css/AdminLTE.min.css\'))\nresponse.write(\'">\\n  <!-- iCheck -->\\n  <link rel="stylesheet" href="\', escape=False)\nresponse.write(URL(\'static\',\'AdminLTE-2.3.3/plugins/iCheck/square/blue.css\'))\nresponse.write(\'">\\n\\n  <!-- HTML5 Shim and Respond.js IE8 support of HTML5 elements and media queries -->\\n  <!-- WARNING: Respond.js doesn\\\'t work if you view the page via file:// -->\\n  <!--[if lt IE 9]>\\n  <script src="https://oss.maxcdn.com/html5shiv/3.7.3/html5shiv.min.js"></script>\\n  <script src="https://oss.maxcdn.com/respond/1.4.2/respond.min.js"></script>\\n  <![endif]-->\\n</head>\\n<body class="hold-transition login-page">\\n<div class="login-box">\\n  <div class="login-logo">\\n    <b>[Helpy]</b>Desk\\n  </div>\\n  <!-- /.login-logo -->\\n  <div class="login-box-body">\\n    <p class="login-box-msg">Fa\\xc3\\xa7a o login para acessar o sistema</p>\\n      \', escape=False)\nerror=\'\'\nresponse.write(\'\\n      \', escape=False)\nif form_login.errors:\n    response.write(\'\\n      \', escape=False)\n    error=\'has-error\'\n    response.write(\'\\n    \', escape=False)\n    response.write(form_login.custom.begin)\n    response.write(\'\\n      <div class="form-group has-feedback \', escape=False)\n    error\n    response.write(\'">\\n        \', escape=False)\n    response.write(form_login.custom.widget.username)\n    response.write(\' <!-- input type="text" class="form-control" placeholder="Usu\\xc3\\xa1rio" name="usuario" -->\\n        <span class="glyphicon glyphicon-user form-control-feedback"></span>\\n      </div>\\n      <div class="form-group has-feedback \', escape=False)\n    error\n    response.write(\'">\\n        \', escape=False)\n    response.write(form_login.custom.widget.password)\n    response.write(\' <!-- input type="password" class="form-control" placeholder="Senha" name="senha" -->\\n        <span class="glyphicon glyphicon-lock form-control-feedback"></span>\\n      </div>\\n      <div class="row">\\n        <!-- /.col -->\\n        <div class="col-xs-4">\\n          \', escape=False)\n    response.write(form_login.custom.submit)\n    response.write(\' <!-- button type="submit" class="btn btn-primary btn-block btn-flat">Entrar</button -->\\n        </div>\\n        <!-- /.col -->\\n      </div>\\n    \', escape=False)\n    response.write(form_login.custom.end)\n    response.write(\'\\n    <a href="#">Esqueci minha senha</a>\\n\\n  </div>\\n  <!-- /.login-box-body -->\\n</div>\\n<!-- /.login-box -->\\n\\n<!-- jQuery 2.2.0 -->\\n<script src="\', escape=False)\n    response.write(URL(\'static\',\'AdminLTE-2.3.3/plugins/jQuery/jQuery-2.2.0.min.js\'))\n    response.write(\'"></script>\\n<!-- Bootstrap 3.3.6 -->\\n<script src="\', escape=False)\n    response.write(URL(\'static\',\'AdminLTE-2.3.3/bootstrap/js/bootstrap.min.js\'))\n    response.write(\'"></script>\\n<!-- iCheck -->\\n<script src="\', escape=False)\n    response.write(URL(\'static\',\'AdminLTE-2.3.3/plugins/iCheck/icheck.min.js\'))\n    response.write(\'"></script>\\n<script>\\n  $(function () {\\n    $(\\\'input\\\').iCheck({\\n      checkboxClass: \\\'icheckbox_square-blue\\\',\\n      radioClass: \\\'iradio_square-blue\\\',\\n      increaseArea: \\\'20%\\\' // optional\\n    });\\n  });\\n</script>\\n</body>\\n</html>\\n\', escape=False)'
p7
sS'snapshot'
p8
(dp9
sS'traceback'
p10
S'None\n'
p11
s.