(dp1
S'output'
p2
S"<type 'exceptions.ValueError'> need more than 2 values to unpack"
p3
sS'layer'
p4
S'/home/diegocunha/web2py/applications/Helpy/views/dashboard/index.html'
p5
sS'code'
p6
S'response.write(\'<!DOCTYPE html>\\n<html>\\n<head>\\n  <meta charset="utf-8">\\n  <meta http-equiv="X-UA-Compatible" content="IE=edge">\\n  <title>\', escape=False)\nresponse.write(response.title or request.application)\nresponse.write(\' | \', escape=False)\nresponse.write(\'[Controller]\')\nresponse.write(\'</title>\\n  <!-- Tell the browser to be responsive to screen width -->\\n  <meta content="width=device-width, initial-scale=1, maximum-scale=1, user-scalable=no" name="viewport">\\n  <!-- Bootstrap 3.3.6 -->\\n  <link rel="stylesheet" href="\', escape=False)\nresponse.write(URL(\'static\',\'AdminLTE-2.3.3/bootstrap/css/bootstrap.min.css\'))\nresponse.write(\'">\\n  <!-- Font Awesome -->\\n  <link rel="stylesheet" href="https://cdnjs.cloudflare.com/ajax/libs/font-awesome/4.5.0/css/font-awesome.min.css">\\n  <!-- Ionicons -->\\n  <link rel="stylesheet" href="https://cdnjs.cloudflare.com/ajax/libs/ionicons/2.0.1/css/ionicons.min.css">\\n  <!-- Theme style -->\\n  <link rel="stylesheet" href="\', escape=False)\nresponse.write(URL(\'static\',\'AdminLTE-2.3.3/dist/css/AdminLTE.min.css\'))\nresponse.write(\'">\\n  <!-- AdminLTE Skins. Choose a skin from the css/skins\\n       folder instead of downloading all of them to reduce the load. -->\\n  <link rel="stylesheet" href="\', escape=False)\nresponse.write(URL(\'static\',\'AdminLTE-2.3.3/dist/css/skins/_all-skins.min.css\'))\nresponse.write(\'">\\n  <!-- iCheck -->\\n  <link rel="stylesheet" href="\', escape=False)\nresponse.write(URL(\'static\',\'AdminLTE-2.3.3/plugins/iCheck/flat/blue.css\'))\nresponse.write(\'">\\n  <!-- Morris chart -->\\n  <link rel="stylesheet" href="\', escape=False)\nresponse.write(URL(\'static\',\'AdminLTE-2.3.3/plugins/morris/morris.css\'))\nresponse.write(\'">\\n  <!-- jvectormap -->\\n  <link rel="stylesheet" href="\', escape=False)\nresponse.write(URL(\'static\',\'AdminLTE-2.3.3/plugins/jvectormap/jquery-jvectormap-1.2.2.css\'))\nresponse.write(\'">\\n  <!-- Date Picker -->\\n  <link rel="stylesheet" href="\', escape=False)\nresponse.write(URL(\'static\',\'AdminLTE-2.3.3/plugins/datepicker/datepicker3.css\'))\nresponse.write(\'">\\n  <!-- Daterange picker -->\\n  <link rel="stylesheet" href="\', escape=False)\nresponse.write(URL(\'static\',\'AdminLTE-2.3.3/plugins/daterangepicker/daterangepicker-bs3.css\'))\nresponse.write(\'">\\n  <!-- bootstrap wysihtml5 - text editor -->\\n  <link rel="stylesheet" href="\', escape=False)\nresponse.write(URL(\'static\',\'AdminLTE-2.3.3/plugins/bootstrap-wysihtml5/bootstrap3-wysihtml5.min.css\'))\nresponse.write(\'">\\n\\n  <!-- HTML5 Shim and Respond.js IE8 support of HTML5 elements and media queries -->\\n  <!-- WARNING: Respond.js doesn\\\'t work if you view the page via file:// -->\\n  <!--[if lt IE 9]>\\n  <script src="https://oss.maxcdn.com/html5shiv/3.7.3/html5shiv.min.js"></script>\\n  <script src="https://oss.maxcdn.com/respond/1.4.2/respond.min.js"></script>\\n  <![endif]-->\\n</head>\\n<body class="hold-transition skin-blue sidebar-mini">\\n<div class="wrapper">\\n\\n  <header class="main-header">\\n    <!-- Logo -->\\n    <a href="\', escape=False)\nresponse.write(URL(\'dashboard\', \'index\'))\nresponse.write(\'" class="logo">\\n      <!-- mini logo for sidebar mini 50x50 pixels -->\\n      <span class="logo-mini"><b>\', escape=False)\nresponse.write(response.title or request.application)\nresponse.write(\'</b></span>\\n      <!-- logo for regular state and mobile devices -->\\n      <span class="logo-lg"><b>\', escape=False)\nresponse.write(response.title or request.application)\nresponse.write(\'</b>Desk</span>\\n    </a>\\n    <!-- Header Navbar: style can be found in header.less -->\\n    <nav class="navbar navbar-static-top">\\n      <!-- Sidebar toggle button-->\\n      <a href="#" class="sidebar-toggle" data-toggle="offcanvas" role="button">\\n        <span class="sr-only">Toggle navigation</span>\\n      </a>\\n\\n      <div class="navbar-custom-menu">\\n        <ul class="nav navbar-nav">\\n          <!-- Messages: style can be found in dropdown.less-->\\n          <li class="dropdown messages-menu">\\n            <a href="#" class="dropdown-toggle" data-toggle="dropdown">\\n              <i class="fa fa-envelope-o"></i>\\n              <span class="label label-success">4</span>\\n            </a>\\n            <ul class="dropdown-menu">\\n              <li class="header">You have 4 messages</li>\\n              <li>\\n                <!-- inner menu: contains the actual data -->\\n                <ul class="menu">\\n                  <li><!-- start message -->\\n                    <a href="#">\\n                      <div class="pull-left">\\n                        <img src="\', escape=False)\nresponse.write(URL(\'static\', \'AdminLTE-2.3.3/dist/img/user2-160x160.jpg\'))\nresponse.write(\'" class="img-circle" alt="User Image">\\n                      </div>\\n                      <h4>\\n                        Support Team\\n                        <small><i class="fa fa-clock-o"></i> 5 mins</small>\\n                      </h4>\\n                      <p>Why not buy a new awesome theme?</p>\\n                    </a>\\n                  </li>\\n                  <!-- end message -->\\n                  <li>\\n                    <a href="#">\\n                      <div class="pull-left">\\n                        <img src="\', escape=False)\nresponse.write(URL(\'static\', \'AdminLTE-2.3.3/dist/img/user3-128x128.jpg\'))\nresponse.write(\'" class="img-circle" alt="User Image">\\n                      </div>\\n                      <h4>\\n                        AdminLTE Design Team\\n                        <small><i class="fa fa-clock-o"></i> 2 hours</small>\\n                      </h4>\\n                      <p>Why not buy a new awesome theme?</p>\\n                    </a>\\n                  </li>\\n                  <li>\\n                    <a href="#">\\n                      <div class="pull-left">\\n                        <img src="\', escape=False)\nresponse.write(URL(\'static\', \'AdminLTE-2.3.3/dist/img/user4-128x128.jpg\'))\nresponse.write(\'" class="img-circle" alt="User Image">\\n                      </div>\\n                      <h4>\\n                        Developers\\n                        <small><i class="fa fa-clock-o"></i> Today</small>\\n                      </h4>\\n                      <p>Why not buy a new awesome theme?</p>\\n                    </a>\\n                  </li>\\n                  <li>\\n                    <a href="#">\\n                      <div class="pull-left">\\n                        <img src="\', escape=False)\nresponse.write(URL(\'static\', \'AdminLTE-2.3.3/dist/img/user3-128x128.jpg\'))\nresponse.write(\'" class="img-circle" alt="User Image">\\n                      </div>\\n                      <h4>\\n                        Sales Department\\n                        <small><i class="fa fa-clock-o"></i> Yesterday</small>\\n                      </h4>\\n                      <p>Why not buy a new awesome theme?</p>\\n                    </a>\\n                  </li>\\n                  <li>\\n                    <a href="#">\\n                      <div class="pull-left">\\n                        <img src="\', escape=False)\nresponse.write(URL(\'static\', \'AdminLTE-2.3.3/dist/img/user4-128x128.jpg\'))\nresponse.write(\'" class="img-circle" alt="User Image">\\n                      </div>\\n                      <h4>\\n                        Reviewers\\n                        <small><i class="fa fa-clock-o"></i> 2 days</small>\\n                      </h4>\\n                      <p>Why not buy a new awesome theme?</p>\\n                    </a>\\n                  </li>\\n                </ul>\\n              </li>\\n              <li class="footer"><a href="#">See All Messages</a></li>\\n            </ul>\\n          </li>\\n          <!-- Notifications: style can be found in dropdown.less -->\\n          <li class="dropdown notifications-menu">\\n            <a href="#" class="dropdown-toggle" data-toggle="dropdown">\\n              <i class="fa fa-bell-o"></i>\\n              <span class="label label-warning">10</span>\\n            </a>\\n            <ul class="dropdown-menu">\\n              <li class="header">You have 10 notifications</li>\\n              <li>\\n                <!-- inner menu: contains the actual data -->\\n                <ul class="menu">\\n                  <li>\\n                    <a href="#">\\n                      <i class="fa fa-users text-aqua"></i> 5 new members joined today\\n                    </a>\\n                  </li>\\n                  <li>\\n                    <a href="#">\\n                      <i class="fa fa-warning text-yellow"></i> Very long description here that may not fit into the\\n                      page and may cause design problems\\n                    </a>\\n                  </li>\\n                  <li>\\n                    <a href="#">\\n                      <i class="fa fa-users text-red"></i> 5 new members joined\\n                    </a>\\n                  </li>\\n                  <li>\\n                    <a href="#">\\n                      <i class="fa fa-shopping-cart text-green"></i> 25 sales made\\n                    </a>\\n                  </li>\\n                  <li>\\n                    <a href="#">\\n                      <i class="fa fa-user text-red"></i> You changed your username\\n                    </a>\\n                  </li>\\n                </ul>\\n              </li>\\n              <li class="footer"><a href="#">View all</a></li>\\n            </ul>\\n          </li>\\n          <!-- Tasks: style can be found in dropdown.less -->\\n          <li class="dropdown tasks-menu">\\n            <a href="#" class="dropdown-toggle" data-toggle="dropdown">\\n              <i class="fa fa-flag-o"></i>\\n              <span class="label label-danger">9</span>\\n            </a>\\n            <ul class="dropdown-menu">\\n              <li class="header">You have 9 tasks</li>\\n              <li>\\n                <!-- inner menu: contains the actual data -->\\n                <ul class="menu">\\n                  <li><!-- Task item -->\\n                    <a href="#">\\n                      <h3>\\n                        Design some buttons\\n                        <small class="pull-right">20%</small>\\n                      </h3>\\n                      <div class="progress xs">\\n                        <div class="progress-bar progress-bar-aqua" style="width: 20%" role="progressbar" aria-valuenow="20" aria-valuemin="0" aria-valuemax="100">\\n                          <span class="sr-only">20% Complete</span>\\n                        </div>\\n                      </div>\\n                    </a>\\n                  </li>\\n                  <!-- end task item -->\\n                  <li><!-- Task item -->\\n                    <a href="#">\\n                      <h3>\\n                        Create a nice theme\\n                        <small class="pull-right">40%</small>\\n                      </h3>\\n                      <div class="progress xs">\\n                        <div class="progress-bar progress-bar-green" style="width: 40%" role="progressbar" aria-valuenow="20" aria-valuemin="0" aria-valuemax="100">\\n                          <span class="sr-only">40% Complete</span>\\n                        </div>\\n                      </div>\\n                    </a>\\n                  </li>\\n                  <!-- end task item -->\\n                  <li><!-- Task item -->\\n                    <a href="#">\\n                      <h3>\\n                        Some task I need to do\\n                        <small class="pull-right">60%</small>\\n                      </h3>\\n                      <div class="progress xs">\\n                        <div class="progress-bar progress-bar-red" style="width: 60%" role="progressbar" aria-valuenow="20" aria-valuemin="0" aria-valuemax="100">\\n                          <span class="sr-only">60% Complete</span>\\n                        </div>\\n                      </div>\\n                    </a>\\n                  </li>\\n                  <!-- end task item -->\\n                  <li><!-- Task item -->\\n                    <a href="#">\\n                      <h3>\\n                        Make beautiful transitions\\n                        <small class="pull-right">80%</small>\\n                      </h3>\\n                      <div class="progress xs">\\n                        <div class="progress-bar progress-bar-yellow" style="width: 80%" role="progressbar" aria-valuenow="20" aria-valuemin="0" aria-valuemax="100">\\n                          <span class="sr-only">80% Complete</span>\\n                        </div>\\n                      </div>\\n                    </a>\\n                  </li>\\n                  <!-- end task item -->\\n                </ul>\\n              </li>\\n              <li class="footer">\\n                <a href="#">View all tasks</a>\\n              </li>\\n            </ul>\\n          </li>\\n          <!-- User Account: style can be found in dropdown.less -->\\n          <li class="dropdown user user-menu">\\n            <a href="#" class="dropdown-toggle" data-toggle="dropdown">\\n              <img src="\', escape=False)\nresponse.write(URL(\'static\', \'AdminLTE-2.3.3/dist/img/user2-160x160.jpg\'))\nresponse.write(\'" class="user-image" alt="User Image">\\n              <span class="hidden-xs">Alexander Pierce</span>\\n            </a>\\n            <ul class="dropdown-menu">\\n              <!-- User image -->\\n              <li class="user-header">\\n                <img src="\', escape=False)\nresponse.write(URL(\'static\', \'AdminLTE-2.3.3/dist/img/user2-160x160.jpg\'))\nresponse.write(\'" class="img-circle" alt="User Image">\\n\\n                <p>\\n                  Alexander Pierce - Web Developer\\n                  <small>Member since Nov. 2012</small>\\n                </p>\\n              </li>\\n              <!-- Menu Body -->\\n              <li class="user-body">\\n                <div class="row">\\n                  <div class="col-xs-4 text-center">\\n                    <a href="#">Followers</a>\\n                  </div>\\n                  <div class="col-xs-4 text-center">\\n                    <a href="#">Sales</a>\\n                  </div>\\n                  <div class="col-xs-4 text-center">\\n                    <a href="#">Friends</a>\\n                  </div>\\n                </div>\\n                <!-- /.row -->\\n              </li>\\n              <!-- Menu Footer-->\\n              <li class="user-footer">\\n                <div class="pull-left">\\n                  <a href="#" class="btn btn-default btn-flat">Profile</a>\\n                </div>\\n                <div class="pull-right">\\n                  <a href="#" class="btn btn-default btn-flat">Sign out</a>\\n                </div>\\n              </li>\\n            </ul>\\n          </li>\\n          <!-- Control Sidebar Toggle Button -->\\n          <li>\\n            <a href="#" data-toggle="control-sidebar"><i class="fa fa-gears"></i></a>\\n          </li>\\n        </ul>\\n      </div>\\n    </nav>\\n  </header>\\n  <!-- Left side column. contains the logo and sidebar -->\\n  <aside class="main-sidebar">\\n    <!-- sidebar: style can be found in sidebar.less -->\\n    <section class="sidebar">\\n      <!-- Sidebar user panel -->\\n      <div class="user-panel">\\n        <div class="pull-left image">\\n          <img src="\', escape=False)\nresponse.write(URL(\'static\', \'AdminLTE-2.3.3/dist/img/user2-160x160.jpg\'))\nresponse.write(\'" class="img-circle" alt="User Image">\\n        </div>\\n        <div class="pull-left info">\\n          <p>Alexander Pierce</p>\\n          <a href="#"><i class="fa fa-circle text-success"></i> Online</a>\\n        </div>\\n      </div>\\n      <!-- search form -->\\n      <form action="#" method="get" class="sidebar-form">\\n        <div class="input-group">\\n          <input type="text" name="q" class="form-control" placeholder="Search...">\\n              <span class="input-group-btn">\\n                <button type="submit" name="search" id="search-btn" class="btn btn-flat"><i class="fa fa-search"></i>\\n                </button>\\n              </span>\\n        </div>\\n      </form>\\n      <!-- /.search form -->\\n      <!-- sidebar menu: : style can be found in sidebar.less -->\\n      \', escape=False)\nif response.menu_html:\n    response.write(\'\\n        \', escape=False)\n    response.write(response.menu_html)\n    response.write(\'\\n        \', escape=False)\n    pass\nresponse.write(\'\\n    <!-- ul class="sidebar-menu">\\n        <li class="header">MENU PRINCIPAL</li>\\n        <li class="active treeview">\\n          <a href="#">\\n            <i class="fa fa-dashboard"></i> <span>Dashboard</span> <i class="fa fa-angle-left pull-right"></i>\\n          </a>\\n          <ul class="treeview-menu">\\n            <li class="active"><a href="index.html"><i class="fa fa-circle-o"></i> Dashboard v1</a></li>\\n            <li><a href="index2.html"><i class="fa fa-circle-o"></i> Dashboard v2</a></li>\\n          </ul>\\n        </li>\\n        <li class="treeview">\\n          <a href="#">\\n            <i class="fa fa-files-o"></i>\\n            <span>Layout Options</span>\\n            <span class="label label-primary pull-right">4</span>\\n          </a>\\n          <ul class="treeview-menu">\\n            <li><a href="pages/layout/top-nav.html"><i class="fa fa-circle-o"></i> Top Navigation</a></li>\\n            <li><a href="pages/layout/boxed.html"><i class="fa fa-circle-o"></i> Boxed</a></li>\\n            <li><a href="pages/layout/fixed.html"><i class="fa fa-circle-o"></i> Fixed</a></li>\\n            <li><a href="pages/layout/collapsed-sidebar.html"><i class="fa fa-circle-o"></i> Collapsed Sidebar</a></li>\\n          </ul>\\n        </li>\\n        <li>\\n          <a href="pages/widgets.html">\\n            <i class="fa fa-th"></i> <span>Widgets</span>\\n            <small class="label pull-right bg-green">new</small>\\n          </a>\\n        </li>\\n        <li class="treeview">\\n          <a href="#">\\n            <i class="fa fa-pie-chart"></i>\\n            <span>Charts</span>\\n            <i class="fa fa-angle-left pull-right"></i>\\n          </a>\\n          <ul class="treeview-menu">\\n            <li><a href="pages/charts/chartjs.html"><i class="fa fa-circle-o"></i> ChartJS</a></li>\\n            <li><a href="pages/charts/morris.html"><i class="fa fa-circle-o"></i> Morris</a></li>\\n            <li><a href="pages/charts/flot.html"><i class="fa fa-circle-o"></i> Flot</a></li>\\n            <li><a href="pages/charts/inline.html"><i class="fa fa-circle-o"></i> Inline charts</a></li>\\n          </ul>\\n        </li>\\n        <li class="treeview">\\n          <a href="#">\\n            <i class="fa fa-laptop"></i>\\n            <span>UI Elements</span>\\n            <i class="fa fa-angle-left pull-right"></i>\\n          </a>\\n          <ul class="treeview-menu">\\n            <li><a href="pages/UI/general.html"><i class="fa fa-circle-o"></i> General</a></li>\\n            <li><a href="pages/UI/icons.html"><i class="fa fa-circle-o"></i> Icons</a></li>\\n            <li><a href="pages/UI/buttons.html"><i class="fa fa-circle-o"></i> Buttons</a></li>\\n            <li><a href="pages/UI/sliders.html"><i class="fa fa-circle-o"></i> Sliders</a></li>\\n            <li><a href="pages/UI/timeline.html"><i class="fa fa-circle-o"></i> Timeline</a></li>\\n            <li><a href="pages/UI/modals.html"><i class="fa fa-circle-o"></i> Modals</a></li>\\n          </ul>\\n        </li>\\n        <li class="treeview">\\n          <a href="#">\\n            <i class="fa fa-edit"></i> <span>Forms</span>\\n            <i class="fa fa-angle-left pull-right"></i>\\n          </a>\\n          <ul class="treeview-menu">\\n            <li><a href="pages/forms/general.html"><i class="fa fa-circle-o"></i> General Elements</a></li>\\n            <li><a href="pages/forms/advanced.html"><i class="fa fa-circle-o"></i> Advanced Elements</a></li>\\n            <li><a href="pages/forms/editors.html"><i class="fa fa-circle-o"></i> Editors</a></li>\\n          </ul>\\n        </li>\\n        <li class="treeview">\\n          <a href="#">\\n            <i class="fa fa-table"></i> <span>Tables</span>\\n            <i class="fa fa-angle-left pull-right"></i>\\n          </a>\\n          <ul class="treeview-menu">\\n            <li><a href="pages/tables/simple.html"><i class="fa fa-circle-o"></i> Simple tables</a></li>\\n            <li><a href="pages/tables/data.html"><i class="fa fa-circle-o"></i> Data tables</a></li>\\n          </ul>\\n        </li>\\n        <li>\\n          <a href="pages/calendar.html">\\n            <i class="fa fa-calendar"></i> <span>Calendar</span>\\n            <small class="label pull-right bg-red">3</small>\\n          </a>\\n        </li>\\n        <li>\\n          <a href="pages/mailbox/mailbox.html">\\n            <i class="fa fa-envelope"></i> <span>Mailbox</span>\\n            <small class="label pull-right bg-yellow">12</small>\\n          </a>\\n        </li>\\n        <li class="treeview">\\n          <a href="#">\\n            <i class="fa fa-folder"></i> <span>Examples</span>\\n            <i class="fa fa-angle-left pull-right"></i>\\n          </a>\\n          <ul class="treeview-menu">\\n            <li><a href="pages/examples/invoice.html"><i class="fa fa-circle-o"></i> Invoice</a></li>\\n            <li><a href="pages/examples/profile.html"><i class="fa fa-circle-o"></i> Profile</a></li>\\n            <li><a href="pages/examples/login.html"><i class="fa fa-circle-o"></i> Login</a></li>\\n            <li><a href="pages/examples/register.html"><i class="fa fa-circle-o"></i> Register</a></li>\\n            <li><a href="pages/examples/lockscreen.html"><i class="fa fa-circle-o"></i> Lockscreen</a></li>\\n            <li><a href="pages/examples/404.html"><i class="fa fa-circle-o"></i> 404 Error</a></li>\\n            <li><a href="pages/examples/500.html"><i class="fa fa-circle-o"></i> 500 Error</a></li>\\n            <li><a href="pages/examples/blank.html"><i class="fa fa-circle-o"></i> Blank Page</a></li>\\n            <li><a href="pages/examples/pace.html"><i class="fa fa-circle-o"></i> Pace Page</a></li>\\n          </ul>\\n        </li>\\n        <li class="treeview">\\n          <a href="#">\\n            <i class="fa fa-share"></i> <span>Multilevel</span>\\n            <i class="fa fa-angle-left pull-right"></i>\\n          </a>\\n          <ul class="treeview-menu">\\n            <li><a href="#"><i class="fa fa-circle-o"></i> Level One</a></li>\\n            <li>\\n              <a href="#"><i class="fa fa-circle-o"></i> Level One <i class="fa fa-angle-left pull-right"></i></a>\\n              <ul class="treeview-menu">\\n                <li><a href="#"><i class="fa fa-circle-o"></i> Level Two</a></li>\\n                <li>\\n                  <a href="#"><i class="fa fa-circle-o"></i> Level Two <i class="fa fa-angle-left pull-right"></i></a>\\n                  <ul class="treeview-menu">\\n                    <li><a href="#"><i class="fa fa-circle-o"></i> Level Three</a></li>\\n                    <li><a href="#"><i class="fa fa-circle-o"></i> Level Three</a></li>\\n                  </ul>\\n                </li>\\n              </ul>\\n            </li>\\n            <li><a href="#"><i class="fa fa-circle-o"></i> Level One</a></li>\\n          </ul>\\n        </li>\\n        <li><a href="documentation/index.html"><i class="fa fa-book"></i> <span>Documentation</span></a></li>\\n        <li class="header">LABELS</li>\\n        <li><a href="#"><i class="fa fa-circle-o text-red"></i> <span>Important</span></a></li>\\n        <li><a href="#"><i class="fa fa-circle-o text-yellow"></i> <span>Warning</span></a></li>\\n        <li><a href="#"><i class="fa fa-circle-o text-aqua"></i> <span>Information</span></a></li>\\n      </ul -->\\n    </section>\\n    <!-- /.sidebar -->\\n  </aside>\\n\\n  <!-- Content Wrapper. Contains page content -->\\n  <div class="content-wrapper">\\n    <!-- Content Header (Page header) -->\\n    <section class="content-header">\\n      <h1>\\n        Dashboard\\n        <small>Control panel</small>\\n      </h1>\\n      <ol class="breadcrumb">\\n        <li><a href="#"><i class="fa fa-dashboard"></i> Home</a></li>\\n        <li class="active">Dashboard</li>\\n      </ol>\\n    </section>\\n\\n    <!-- Main content -->\\n    <section class="content">\\n        \', escape=False)\nresponse.write(\'\\n<h1>Este \\xc3\\xa9 o template dashboard/index.html</h1>\\n\', escape=False)\nresponse.write(BEAUTIFY(response._vars))\nresponse.write(\'\\n\', escape=False)\nresponse.write(\'\\n    </section>\\n    <!-- /.content -->\\n  </div>\\n  <!-- /.content-wrapper -->\\n  <footer class="main-footer">\\n    <div class="pull-right hidden-xs">\\n      <b>Version</b> 2.3.3\\n    </div>\\n    <strong>Copyright &copy; 2014-2015 <a href="http://almsaeedstudio.com">Almsaeed Studio</a>.</strong> All rights\\n    reserved.\\n  </footer>\\n\\n  <!-- Control Sidebar -->\\n  <aside class="control-sidebar control-sidebar-dark">\\n    <!-- Create the tabs -->\\n    <ul class="nav nav-tabs nav-justified control-sidebar-tabs">\\n      <li><a href="#control-sidebar-home-tab" data-toggle="tab"><i class="fa fa-home"></i></a></li>\\n      <li><a href="#control-sidebar-settings-tab" data-toggle="tab"><i class="fa fa-gears"></i></a></li>\\n    </ul>\\n    <!-- Tab panes -->\\n    <div class="tab-content">\\n      <!-- Home tab content -->\\n      <div class="tab-pane" id="control-sidebar-home-tab">\\n        <h3 class="control-sidebar-heading">Recent Activity</h3>\\n        <ul class="control-sidebar-menu">\\n          <li>\\n            <a href="javascript:void(0)">\\n              <i class="menu-icon fa fa-birthday-cake bg-red"></i>\\n\\n              <div class="menu-info">\\n                <h4 class="control-sidebar-subheading">Langdon\\\'s Birthday</h4>\\n\\n                <p>Will be 23 on April 24th</p>\\n              </div>\\n            </a>\\n          </li>\\n          <li>\\n            <a href="javascript:void(0)">\\n              <i class="menu-icon fa fa-user bg-yellow"></i>\\n\\n              <div class="menu-info">\\n                <h4 class="control-sidebar-subheading">Frodo Updated His Profile</h4>\\n\\n                <p>New phone +1(800)555-1234</p>\\n              </div>\\n            </a>\\n          </li>\\n          <li>\\n            <a href="javascript:void(0)">\\n              <i class="menu-icon fa fa-envelope-o bg-light-blue"></i>\\n\\n              <div class="menu-info">\\n                <h4 class="control-sidebar-subheading">Nora Joined Mailing List</h4>\\n\\n                <p>nora@example.com</p>\\n              </div>\\n            </a>\\n          </li>\\n          <li>\\n            <a href="javascript:void(0)">\\n              <i class="menu-icon fa fa-file-code-o bg-green"></i>\\n\\n              <div class="menu-info">\\n                <h4 class="control-sidebar-subheading">Cron Job 254 Executed</h4>\\n\\n                <p>Execution time 5 seconds</p>\\n              </div>\\n            </a>\\n          </li>\\n        </ul>\\n        <!-- /.control-sidebar-menu -->\\n\\n        <h3 class="control-sidebar-heading">Tasks Progress</h3>\\n        <ul class="control-sidebar-menu">\\n          <li>\\n            <a href="javascript:void(0)">\\n              <h4 class="control-sidebar-subheading">\\n                Custom Template Design\\n                <span class="label label-danger pull-right">70%</span>\\n              </h4>\\n\\n              <div class="progress progress-xxs">\\n                <div class="progress-bar progress-bar-danger" style="width: 70%"></div>\\n              </div>\\n            </a>\\n          </li>\\n          <li>\\n            <a href="javascript:void(0)">\\n              <h4 class="control-sidebar-subheading">\\n                Update Resume\\n                <span class="label label-success pull-right">95%</span>\\n              </h4>\\n\\n              <div class="progress progress-xxs">\\n                <div class="progress-bar progress-bar-success" style="width: 95%"></div>\\n              </div>\\n            </a>\\n          </li>\\n          <li>\\n            <a href="javascript:void(0)">\\n              <h4 class="control-sidebar-subheading">\\n                Laravel Integration\\n                <span class="label label-warning pull-right">50%</span>\\n              </h4>\\n\\n              <div class="progress progress-xxs">\\n                <div class="progress-bar progress-bar-warning" style="width: 50%"></div>\\n              </div>\\n            </a>\\n          </li>\\n          <li>\\n            <a href="javascript:void(0)">\\n              <h4 class="control-sidebar-subheading">\\n                Back End Framework\\n                <span class="label label-primary pull-right">68%</span>\\n              </h4>\\n\\n              <div class="progress progress-xxs">\\n                <div class="progress-bar progress-bar-primary" style="width: 68%"></div>\\n              </div>\\n            </a>\\n          </li>\\n        </ul>\\n        <!-- /.control-sidebar-menu -->\\n\\n      </div>\\n      <!-- /.tab-pane -->\\n      <!-- Stats tab content -->\\n      <div class="tab-pane" id="control-sidebar-stats-tab">Stats Tab Content</div>\\n      <!-- /.tab-pane -->\\n      <!-- Settings tab content -->\\n      <div class="tab-pane" id="control-sidebar-settings-tab">\\n        <form method="post">\\n          <h3 class="control-sidebar-heading">General Settings</h3>\\n\\n          <div class="form-group">\\n            <label class="control-sidebar-subheading">\\n              Report panel usage\\n              <input type="checkbox" class="pull-right" checked>\\n            </label>\\n\\n            <p>\\n              Some information about this general settings option\\n            </p>\\n          </div>\\n          <!-- /.form-group -->\\n\\n          <div class="form-group">\\n            <label class="control-sidebar-subheading">\\n              Allow mail redirect\\n              <input type="checkbox" class="pull-right" checked>\\n            </label>\\n\\n            <p>\\n              Other sets of options are available\\n            </p>\\n          </div>\\n          <!-- /.form-group -->\\n\\n          <div class="form-group">\\n            <label class="control-sidebar-subheading">\\n              Expose author name in posts\\n              <input type="checkbox" class="pull-right" checked>\\n            </label>\\n\\n            <p>\\n              Allow the user to show his name in blog posts\\n            </p>\\n          </div>\\n          <!-- /.form-group -->\\n\\n          <h3 class="control-sidebar-heading">Chat Settings</h3>\\n\\n          <div class="form-group">\\n            <label class="control-sidebar-subheading">\\n              Show me as online\\n              <input type="checkbox" class="pull-right" checked>\\n            </label>\\n          </div>\\n          <!-- /.form-group -->\\n\\n          <div class="form-group">\\n            <label class="control-sidebar-subheading">\\n              Turn off notifications\\n              <input type="checkbox" class="pull-right">\\n            </label>\\n          </div>\\n          <!-- /.form-group -->\\n\\n          <div class="form-group">\\n            <label class="control-sidebar-subheading">\\n              Delete chat history\\n              <a href="javascript:void(0)" class="text-red pull-right"><i class="fa fa-trash-o"></i></a>\\n            </label>\\n          </div>\\n          <!-- /.form-group -->\\n        </form>\\n      </div>\\n      <!-- /.tab-pane -->\\n    </div>\\n  </aside>\\n  <!-- /.control-sidebar -->\\n  <!-- Add the sidebar\\\'s background. This div must be placed\\n       immediately after the control sidebar -->\\n  <div class="control-sidebar-bg"></div>\\n</div>\\n<!-- ./wrapper -->\\n\\n<!-- jQuery 2.2.0 -->\\n<script src="\', escape=False)\nresponse.write(URL(\'static\',\'AdminLTE-2.3.3/plugins/jQuery/jQuery-2.2.0.min.js\'))\nresponse.write(\'"></script>\\n<!-- jQuery UI 1.11.4 -->\\n<script src="https://code.jquery.com/ui/1.11.4/jquery-ui.min.js"></script>\\n<!-- Resolve conflict in jQuery UI tooltip with Bootstrap tooltip -->\\n<script>\\n  $.widget.bridge(\\\'uibutton\\\', $.ui.button);\\n</script>\\n<!-- Bootstrap 3.3.6 -->\\n<script src="\', escape=False)\nresponse.write(URL(\'static\',\'AdminLTE-2.3.3/bootstrap/js/bootstrap.min.js\'))\nresponse.write(\'"></script>\\n<!-- Morris.js charts -->\\n<script src="https://cdnjs.cloudflare.com/ajax/libs/raphael/2.1.0/raphael-min.js"></script>\\n<script src="\', escape=False)\nresponse.write(URL(\'static\',\'AdminLTE-2.3.3/plugins/morris/morris.min.js\'))\nresponse.write(\'"></script>\\n<!-- Sparkline -->\\n<script src="\', escape=False)\nresponse.write(URL(\'static\',\'AdminLTE-2.3.3/plugins/sparkline/jquery.sparkline.min.js\'))\nresponse.write(\'"></script>\\n<!-- jvectormap -->\\n<script src="\', escape=False)\nresponse.write(URL(\'static\',\'AdminLTE-2.3.3/plugins/jvectormap/jquery-jvectormap-1.2.2.min.js\'))\nresponse.write(\'"></script>\\n<script src="\', escape=False)\nresponse.write(URL(\'static\',\'AdminLTE-2.3.3/plugins/jvectormap/jquery-jvectormap-world-mill-en.js\'))\nresponse.write(\'"></script>\\n<!-- jQuery Knob Chart -->\\n<script src="\', escape=False)\nresponse.write(URL(\'static\',\'AdminLTE-2.3.3/plugins/knob/jquery.knob.js\'))\nresponse.write(\'"></script>\\n<!-- daterangepicker -->\\n<script src="https://cdnjs.cloudflare.com/ajax/libs/moment.js/2.11.2/moment.min.js"></script>\\n<script src="\', escape=False)\nresponse.write(URL(\'static\',\'AdminLTE-2.3.3/plugins/daterangepicker/daterangepicker.js\'))\nresponse.write(\'"></script>\\n<!-- datepicker -->\\n<script src="\', escape=False)\nresponse.write(URL(\'static\',\'AdminLTE-2.3.3/plugins/datepicker/bootstrap-datepicker.js\'))\nresponse.write(\'"></script>\\n<!-- Bootstrap WYSIHTML5 -->\\n<script src="\', escape=False)\nresponse.write(URL(\'static\',\'AdminLTE-2.3.3/plugins/bootstrap-wysihtml5/bootstrap3-wysihtml5.all.min.js\'))\nresponse.write(\'"></script>\\n<!-- Slimscroll -->\\n<script src="\', escape=False)\nresponse.write(URL(\'static\',\'AdminLTE-2.3.3/plugins/slimScroll/jquery.slimscroll.min.js\'))\nresponse.write(\'"></script>\\n<!-- FastClick -->\\n<script src="\', escape=False)\nresponse.write(URL(\'static\',\'AdminLTE-2.3.3/plugins/fastclick/fastclick.js\'))\nresponse.write(\'"></script>\\n<!-- AdminLTE App -->\\n<script src="\', escape=False)\nresponse.write(URL(\'static\',\'AdminLTE-2.3.3/dist/js/app.min.js\'))\nresponse.write(\'"></script>\\n<!-- AdminLTE dashboard demo (This is only for demo purposes) -->\\n<script src="\', escape=False)\nresponse.write(URL(\'static\',\'AdminLTE-2.3.3/dist/js/pages/dashboard.js\'))\nresponse.write(\' "></script>\\n<!-- AdminLTE for demo purposes -->\\n<script src="\', escape=False)\nresponse.write(URL(\'static\',\'AdminLTE-2.3.3/dist/js/demo.js\'))\nresponse.write(\'"></script>\\n</body>\\n</html>\\n\', escape=False)'
p7
sS'snapshot'
p8
(dp9
sS'traceback'
p10
S'Traceback (most recent call last):\n  File "/home/diegocunha/web2py/gluon/restricted.py", line 227, in restricted\n    exec ccode in environment\n  File "/home/diegocunha/web2py/applications/Helpy/views/dashboard/index.html", line 48, in <module>\n  File "/home/diegocunha/web2py/gluon/globals.py", line 430, in write\n    self.body.write(xmlescape(data))\n  File "/home/diegocunha/web2py/gluon/html.py", line 131, in xmlescape\n    return data.xml()\n  File "/home/diegocunha/web2py/gluon/html.py", line 2580, in xml\n    return self.serialize(self.data, 0).xml()\n  File "/home/diegocunha/web2py/gluon/html.py", line 2525, in serialize\n    (name, active, link) = item[:3]\nValueError: need more than 2 values to unpack\n'
p11
s.